bomb:     file format elf64-x86-64


Disassembly of section .init:

0000000000400a60 <_init>:
  400a60:       48 83 ec 08             sub    $0x8,%rsp
  400a64:       e8 13 02 00 00          callq  400c7c <call_gmon_start>
  400a69:       e8 a2 02 00 00          callq  400d10 <frame_dummy>
  400a6e:       e8 9d 17 00 00          callq  402210 <__do_global_ctors_aux>
  400a73:       48 83 c4 08             add    $0x8,%rsp
  400a77:       c3                      retq

Disassembly of section .plt:

0000000000400a78 <printf@plt-0x10>:
  400a78:       ff 35 4a 27 20 00       pushq  0x20274a(%rip)        # 6031c8 <_GLOBAL_OFFSET_TABLE_+0x8>
  400a7e:       ff 25 4c 27 20 00       jmpq   *0x20274c(%rip)        # 6031d0 <_GLOBAL_OFFSET_TABLE_+0x10>
  400a84:       0f 1f 40 00             nopl   0x0(%rax)

0000000000400a88 <printf@plt>:
  400a88:       ff 25 4a 27 20 00       jmpq   *0x20274a(%rip)        # 6031d8 <_GLOBAL_OFFSET_TABLE_+0x18>
  400a8e:       68 00 00 00 00          pushq  $0x0
  400a93:       e9 e0 ff ff ff          jmpq   400a78 <_init+0x18>

0000000000400a98 <close@plt>:
  400a98:       ff 25 42 27 20 00       jmpq   *0x202742(%rip)        # 6031e0 <_GLOBAL_OFFSET_TABLE_+0x20>
  400a9e:       68 01 00 00 00          pushq  $0x1
  400aa3:       e9 d0 ff ff ff          jmpq   400a78 <_init+0x18>

0000000000400aa8 <gethostbyname@plt>:
  400aa8:       ff 25 3a 27 20 00       jmpq   *0x20273a(%rip)        # 6031e8 <_GLOBAL_OFFSET_TABLE_+0x28>
  400aae:       68 02 00 00 00          pushq  $0x2
  400ab3:       e9 c0 ff ff ff          jmpq   400a78 <_init+0x18>

0000000000400ab8 <puts@plt>:
  400ab8:       ff 25 32 27 20 00       jmpq   *0x202732(%rip)        # 6031f0 <_GLOBAL_OFFSET_TABLE_+0x30>
  400abe:       68 03 00 00 00          pushq  $0x3
  400ac3:       e9 b0 ff ff ff          jmpq   400a78 <_init+0x18>

0000000000400ac8 <__isoc99_sscanf@plt>:
  400ac8:       ff 25 2a 27 20 00       jmpq   *0x20272a(%rip)        # 6031f8 <_GLOBAL_OFFSET_TABLE_+0x38>
  400ace:       68 04 00 00 00          pushq  $0x4
  400ad3:       e9 a0 ff ff ff          jmpq   400a78 <_init+0x18>

0000000000400ad8 <exit@plt>:
  400ad8:       ff 25 22 27 20 00       jmpq   *0x202722(%rip)        # 603200 <_GLOBAL_OFFSET_TABLE_+0x40>
  400ade:       68 05 00 00 00          pushq  $0x5
  400ae3:       e9 90 ff ff ff          jmpq   400a78 <_init+0x18>

0000000000400ae8 <strcasecmp@plt>:
  400ae8:       ff 25 1a 27 20 00       jmpq   *0x20271a(%rip)        # 603208 <_GLOBAL_OFFSET_TABLE_+0x48>
  400aee:       68 06 00 00 00          pushq  $0x6
  400af3:       e9 80 ff ff ff          jmpq   400a78 <_init+0x18>

0000000000400af8 <read@plt>:
  400af8:       ff 25 12 27 20 00       jmpq   *0x202712(%rip)        # 603210 <_GLOBAL_OFFSET_TABLE_+0x50>
  400afe:       68 07 00 00 00          pushq  $0x7
  400b03:       e9 70 ff ff ff          jmpq   400a78 <_init+0x18>

0000000000400b08 <fopen@plt>:
  400b08:       ff 25 0a 27 20 00       jmpq   *0x20270a(%rip)        # 603218 <_GLOBAL_OFFSET_TABLE_+0x58>
  400b0e:       68 08 00 00 00          pushq  $0x8
  400b13:       e9 60 ff ff ff          jmpq   400a78 <_init+0x18>

0000000000400b18 <__libc_start_main@plt>:
  400b18:       ff 25 02 27 20 00       jmpq   *0x202702(%rip)        # 603220 <_GLOBAL_OFFSET_TABLE_+0x60>
  400b1e:       68 09 00 00 00          pushq  $0x9
  400b23:       e9 50 ff ff ff          jmpq   400a78 <_init+0x18>

0000000000400b28 <fgets@plt>:
  400b28:       ff 25 fa 26 20 00       jmpq   *0x2026fa(%rip)        # 603228 <_GLOBAL_OFFSET_TABLE_+0x68>
  400b2e:       68 0a 00 00 00          pushq  $0xa
  400b33:       e9 40 ff ff ff          jmpq   400a78 <_init+0x18>

0000000000400b38 <bcopy@plt>:
  400b38:       ff 25 f2 26 20 00       jmpq   *0x2026f2(%rip)        # 603230 <_GLOBAL_OFFSET_TABLE_+0x70>
  400b3e:       68 0b 00 00 00          pushq  $0xb
  400b43:       e9 30 ff ff ff          jmpq   400a78 <_init+0x18>

0000000000400b48 <__ctype_b_loc@plt>:
  400b48:       ff 25 ea 26 20 00       jmpq   *0x2026ea(%rip)        # 603238 <_GLOBAL_OFFSET_TABLE_+0x78>
  400b4e:       68 0c 00 00 00          pushq  $0xc
  400b53:       e9 20 ff ff ff          jmpq   400a78 <_init+0x18>

0000000000400b58 <sprintf@plt>:
  400b58:       ff 25 e2 26 20 00       jmpq   *0x2026e2(%rip)        # 603240 <_GLOBAL_OFFSET_TABLE_+0x80>
  400b5e:       68 0d 00 00 00          pushq  $0xd
  400b63:       e9 10 ff ff ff          jmpq   400a78 <_init+0x18>

0000000000400b68 <sleep@plt>:
  400b68:       ff 25 da 26 20 00       jmpq   *0x2026da(%rip)        # 603248 <_GLOBAL_OFFSET_TABLE_+0x88>
  400b6e:       68 0e 00 00 00          pushq  $0xe
  400b73:       e9 00 ff ff ff          jmpq   400a78 <_init+0x18>

0000000000400b78 <strtol@plt>:
  400b78:       ff 25 d2 26 20 00       jmpq   *0x2026d2(%rip)        # 603250 <_GLOBAL_OFFSET_TABLE_+0x90>
  400b7e:       68 0f 00 00 00          pushq  $0xf
  400b83:       e9 f0 fe ff ff          jmpq   400a78 <_init+0x18>

0000000000400b88 <connect@plt>:
  400b88:       ff 25 ca 26 20 00       jmpq   *0x2026ca(%rip)        # 603258 <_GLOBAL_OFFSET_TABLE_+0x98>
  400b8e:       68 10 00 00 00          pushq  $0x10
  400b93:       e9 e0 fe ff ff          jmpq   400a78 <_init+0x18>

0000000000400b98 <gethostname@plt>:
  400b98:       ff 25 c2 26 20 00       jmpq   *0x2026c2(%rip)        # 603260 <_GLOBAL_OFFSET_TABLE_+0xa0>
  400b9e:       68 11 00 00 00          pushq  $0x11
  400ba3:       e9 d0 fe ff ff          jmpq   400a78 <_init+0x18>

0000000000400ba8 <memcpy@plt>:
  400ba8:       ff 25 ba 26 20 00       jmpq   *0x2026ba(%rip)        # 603268 <_GLOBAL_OFFSET_TABLE_+0xa8>
  400bae:       68 12 00 00 00          pushq  $0x12
  400bb3:       e9 c0 fe ff ff          jmpq   400a78 <_init+0x18>

0000000000400bb8 <signal@plt>:
  400bb8:       ff 25 b2 26 20 00       jmpq   *0x2026b2(%rip)        # 603270 <_GLOBAL_OFFSET_TABLE_+0xb0>
  400bbe:       68 13 00 00 00          pushq  $0x13
  400bc3:       e9 b0 fe ff ff          jmpq   400a78 <_init+0x18>

0000000000400bc8 <socket@plt>:
  400bc8:       ff 25 aa 26 20 00       jmpq   *0x2026aa(%rip)        # 603278 <_GLOBAL_OFFSET_TABLE_+0xb8>
  400bce:       68 14 00 00 00          pushq  $0x14
  400bd3:       e9 a0 fe ff ff          jmpq   400a78 <_init+0x18>

0000000000400bd8 <getenv@plt>:
  400bd8:       ff 25 a2 26 20 00       jmpq   *0x2026a2(%rip)        # 603280 <_GLOBAL_OFFSET_TABLE_+0xc0>
  400bde:       68 15 00 00 00          pushq  $0x15
  400be3:       e9 90 fe ff ff          jmpq   400a78 <_init+0x18>

0000000000400be8 <alarm@plt>:
  400be8:       ff 25 9a 26 20 00       jmpq   *0x20269a(%rip)        # 603288 <_GLOBAL_OFFSET_TABLE_+0xc8>
  400bee:       68 16 00 00 00          pushq  $0x16
  400bf3:       e9 80 fe ff ff          jmpq   400a78 <_init+0x18>

0000000000400bf8 <__errno_location@plt>:
  400bf8:       ff 25 92 26 20 00       jmpq   *0x202692(%rip)        # 603290 <_GLOBAL_OFFSET_TABLE_+0xd0>
  400bfe:       68 17 00 00 00          pushq  $0x17
  400c03:       e9 70 fe ff ff          jmpq   400a78 <_init+0x18>

0000000000400c08 <strcpy@plt>:
  400c08:       ff 25 8a 26 20 00       jmpq   *0x20268a(%rip)        # 603298 <_GLOBAL_OFFSET_TABLE_+0xd8>
  400c0e:       68 18 00 00 00          pushq  $0x18
  400c13:       e9 60 fe ff ff          jmpq   400a78 <_init+0x18>

0000000000400c18 <fprintf@plt>:
  400c18:       ff 25 82 26 20 00       jmpq   *0x202682(%rip)        # 6032a0 <_GLOBAL_OFFSET_TABLE_+0xe0>
  400c1e:       68 19 00 00 00          pushq  $0x19
  400c23:       e9 50 fe ff ff          jmpq   400a78 <_init+0x18>

0000000000400c28 <write@plt>:
  400c28:       ff 25 7a 26 20 00       jmpq   *0x20267a(%rip)        # 6032a8 <_GLOBAL_OFFSET_TABLE_+0xe8>
  400c2e:       68 1a 00 00 00          pushq  $0x1a
  400c33:       e9 40 fe ff ff          jmpq   400a78 <_init+0x18>

0000000000400c38 <fflush@plt>:
  400c38:       ff 25 72 26 20 00       jmpq   *0x202672(%rip)        # 6032b0 <_GLOBAL_OFFSET_TABLE_+0xf0>
  400c3e:       68 1b 00 00 00          pushq  $0x1b
  400c43:       e9 30 fe ff ff          jmpq   400a78 <_init+0x18>

Disassembly of section .text:

0000000000400c50 <_start>:
  400c50:       31 ed                   xor    %ebp,%ebp
  400c52:       49 89 d1                mov    %rdx,%r9
  400c55:       5e                      pop    %rsi
  400c56:       48 89 e2                mov    %rsp,%rdx
  400c59:       48 83 e4 f0             and    $0xfffffffffffffff0,%rsp
  400c5d:       50                      push   %rax
  400c5e:       54                      push   %rsp
  400c5f:       49 c7 c0 70 21 40 00    mov    $0x402170,%r8
  400c66:       48 c7 c1 80 21 40 00    mov    $0x402180,%rcx
  400c6d:       48 c7 c7 34 0d 40 00    mov    $0x400d34,%rdi
  400c74:       e8 9f fe ff ff          callq  400b18 <__libc_start_main@plt>
  400c79:       f4                      hlt
  400c7a:       90                      nop
  400c7b:       90                      nop

0000000000400c7c <call_gmon_start>:
  400c7c:       48 83 ec 08             sub    $0x8,%rsp
  400c80:       48 8b 05 31 25 20 00    mov    0x202531(%rip),%rax        # 6031b8 <_DYNAMIC+0x190>
  400c87:       48 85 c0                test   %rax,%rax
  400c8a:       74 02                   je     400c8e <call_gmon_start+0x12>
  400c8c:       ff d0                   callq  *%rax
  400c8e:       48 83 c4 08             add    $0x8,%rsp
  400c92:       c3                      retq
  400c93:       90                      nop
  400c94:       90                      nop
  400c95:       90                      nop
  400c96:       90                      nop
  400c97:       90                      nop
  400c98:       90                      nop
  400c99:       90                      nop
  400c9a:       90                      nop
  400c9b:       90                      nop
  400c9c:       90                      nop
  400c9d:       90                      nop
  400c9e:       90                      nop
  400c9f:       90                      nop

0000000000400ca0 <__do_global_dtors_aux>:
  400ca0:       55                      push   %rbp
  400ca1:       48 89 e5                mov    %rsp,%rbp
  400ca4:       53                      push   %rbx
  400ca5:       48 83 ec 08             sub    $0x8,%rsp
  400ca9:       80 3d a8 30 20 00 00    cmpb   $0x0,0x2030a8(%rip)        # 603d58 <completed.6349>
  400cb0:       75 4b                   jne    400cfd <__do_global_dtors_aux+0x5d>
  400cb2:       bb 18 30 60 00          mov    $0x603018,%ebx
  400cb7:       48 8b 05 a2 30 20 00    mov    0x2030a2(%rip),%rax        # 603d60 <dtor_idx.6351>
  400cbe:       48 81 eb 10 30 60 00    sub    $0x603010,%rbx
  400cc5:       48 c1 fb 03             sar    $0x3,%rbx
  400cc9:       48 83 eb 01             sub    $0x1,%rbx
  400ccd:       48 39 d8                cmp    %rbx,%rax
  400cd0:       73 24                   jae    400cf6 <__do_global_dtors_aux+0x56>
  400cd2:       66 0f 1f 44 00 00       nopw   0x0(%rax,%rax,1)
  400cd8:       48 83 c0 01             add    $0x1,%rax
  400cdc:       48 89 05 7d 30 20 00    mov    %rax,0x20307d(%rip)        # 603d60 <dtor_idx.6351>
  400ce3:       ff 14 c5 10 30 60 00    callq  *0x603010(,%rax,8)
  400cea:       48 8b 05 6f 30 20 00    mov    0x20306f(%rip),%rax        # 603d60 <dtor_idx.6351>
  400cf1:       48 39 d8                cmp    %rbx,%rax
  400cf4:       72 e2                   jb     400cd8 <__do_global_dtors_aux+0x38>
  400cf6:       c6 05 5b 30 20 00 01    movb   $0x1,0x20305b(%rip)        # 603d58 <completed.6349>
  400cfd:       48 83 c4 08             add    $0x8,%rsp
  400d01:       5b                      pop    %rbx
  400d02:       c9                      leaveq
  400d03:       c3                      retq
  400d04:       66 66 66 2e 0f 1f 84    data32 data32 nopw %cs:0x0(%rax,%rax,1)
  400d0b:       00 00 00 00 00

0000000000400d10 <frame_dummy>:
  400d10:       48 83 3d 08 23 20 00    cmpq   $0x0,0x202308(%rip)        # 603020 <__JCR_END__>
  400d17:       00
  400d18:       55                      push   %rbp
  400d19:       48 89 e5                mov    %rsp,%rbp
  400d1c:       74 12                   je     400d30 <frame_dummy+0x20>
  400d1e:       b8 00 00 00 00          mov    $0x0,%eax
  400d23:       48 85 c0                test   %rax,%rax
  400d26:       74 08                   je     400d30 <frame_dummy+0x20>
  400d28:       bf 20 30 60 00          mov    $0x603020,%edi
  400d2d:       c9                      leaveq
  400d2e:       ff e0                   jmpq   *%rax
  400d30:       c9                      leaveq
  400d31:       c3                      retq
  400d32:       90                      nop
  400d33:       90                      nop

0000000000400d34 <main>:
  400d34:       55                      push   %rbp
  400d35:       53                      push   %rbx
  400d36:       48 83 ec 08             sub    $0x8,%rsp
  400d3a:       48 89 f3                mov    %rsi,%rbx
  400d3d:       83 ff 01                cmp    $0x1,%edi
  400d40:       75 10                   jne    400d52 <main+0x1e>
  400d42:       48 8b 05 f7 2f 20 00    mov    0x202ff7(%rip),%rax        # 603d40 <__bss_start>
  400d49:       48 89 05 20 30 20 00    mov    %rax,0x203020(%rip)        # 603d70 <infile>
  400d50:       eb 5a                   jmp    400dac <main+0x78>
  400d52:       83 ff 02                cmp    $0x2,%edi
  400d55:       75 39                   jne    400d90 <main+0x5c>
  400d57:       48 8d 6e 08             lea    0x8(%rsi),%rbp
  400d5b:       be 70 22 40 00          mov    $0x402270,%esi
  400d60:       48 8b 7d 00             mov    0x0(%rbp),%rdi
  400d64:       e8 9f fd ff ff          callq  400b08 <fopen@plt>
  400d69:       48 89 05 00 30 20 00    mov    %rax,0x203000(%rip)        # 603d70 <infile>
  400d70:       48 85 c0                test   %rax,%rax
  400d73:       75 37                   jne    400dac <main+0x78>
  400d75:       48 8b 55 00             mov    0x0(%rbp),%rdx
  400d79:       48 8b 33                mov    (%rbx),%rsi
  400d7c:       bf 72 22 40 00          mov    $0x402272,%edi
  400d81:       e8 02 fd ff ff          callq  400a88 <printf@plt>
  400d86:       bf 08 00 00 00          mov    $0x8,%edi
  400d8b:       e8 48 fd ff ff          callq  400ad8 <exit@plt>
  400d90:       48 8b 36                mov    (%rsi),%rsi
  400d93:       bf 8f 22 40 00          mov    $0x40228f,%edi
  400d98:       b8 00 00 00 00          mov    $0x0,%eax
  400d9d:       e8 e6 fc ff ff          callq  400a88 <printf@plt>
  400da2:       bf 08 00 00 00          mov    $0x8,%edi
  400da7:       e8 2c fd ff ff          callq  400ad8 <exit@plt>
  400dac:       e8 d0 08 00 00          callq  401681 <initialize_bomb>
  400db1:       bf f8 22 40 00          mov    $0x4022f8,%edi
  400db6:       e8 fd fc ff ff          callq  400ab8 <puts@plt>
  400dbb:       bf 38 23 40 00          mov    $0x402338,%edi
  400dc0:       e8 f3 fc ff ff          callq  400ab8 <puts@plt>
  400dc5:       e8 84 07 00 00          callq  40154e <read_line>
  400dca:       48 89 c7                mov    %rax,%rdi
  400dcd:       e8 06 03 00 00          callq  4010d8 <phase_1>
  400dd2:       e8 8c 05 00 00          callq  401363 <phase_defused>
  400dd7:       bf 68 23 40 00          mov    $0x402368,%edi
  400ddc:       e8 d7 fc ff ff          callq  400ab8 <puts@plt>
  400de1:       e8 68 07 00 00          callq  40154e <read_line>
  400de6:       48 89 c7                mov    %rax,%rdi
  400de9:       e8 48 02 00 00          callq  401036 <phase_2>
  400dee:       e8 70 05 00 00          callq  401363 <phase_defused>
  400df3:       bf a9 22 40 00          mov    $0x4022a9,%edi
  400df8:       e8 bb fc ff ff          callq  400ab8 <puts@plt>
  400dfd:       e8 4c 07 00 00          callq  40154e <read_line>
  400e02:       48 89 c7                mov    %rax,%rdi
  400e05:       e8 47 03 00 00          callq  401151 <phase_3>
  400e0a:       e8 54 05 00 00          callq  401363 <phase_defused>
  400e0f:       bf c7 22 40 00          mov    $0x4022c7,%edi
  400e14:       e8 9f fc ff ff          callq  400ab8 <puts@plt>
  400e19:       e8 30 07 00 00          callq  40154e <read_line>
  400e1e:       48 89 c7                mov    %rax,%rdi
  400e21:       e8 ce 02 00 00          callq  4010f4 <phase_4>
  400e26:       e8 38 05 00 00          callq  401363 <phase_defused>
  400e2b:       bf 98 23 40 00          mov    $0x402398,%edi
  400e30:       e8 83 fc ff ff          callq  400ab8 <puts@plt>
  400e35:       e8 14 07 00 00          callq  40154e <read_line>
  400e3a:       48 89 c7                mov    %rax,%rdi
  400e3d:       e8 38 02 00 00          callq  40107a <phase_5>
  400e42:       e8 1c 05 00 00          callq  401363 <phase_defused>
  400e47:       bf d6 22 40 00          mov    $0x4022d6,%edi
  400e4c:       e8 67 fc ff ff          callq  400ab8 <puts@plt>
  400e51:       e8 f8 06 00 00          callq  40154e <read_line>
  400e56:       48 89 c7                mov    %rax,%rdi
  400e59:       e8 dd 00 00 00          callq  400f3b <phase_6>
  400e5e:       e8 00 05 00 00          callq  401363 <phase_defused>
  400e63:       b8 00 00 00 00          mov    $0x0,%eax
  400e68:       48 83 c4 08             add    $0x8,%rsp
  400e6c:       5b                      pop    %rbx
  400e6d:       5d                      pop    %rbp
  400e6e:       c3                      retq
  400e6f:       90                      nop

0000000000400e70 <func4>:
  400e70:       48 83 ec 08             sub    $0x8,%rsp
  400e74:       89 d0                   mov    %edx,%eax
  400e76:       29 f0                   sub    %esi,%eax
  400e78:       89 c1                   mov    %eax,%ecx
  400e7a:       c1 e9 1f                shr    $0x1f,%ecx
  400e7d:       8d 04 01                lea    (%rcx,%rax,1),%eax
  400e80:       d1 f8                   sar    %eax
  400e82:       8d 0c 30                lea    (%rax,%rsi,1),%ecx
  400e85:       39 f9                   cmp    %edi,%ecx
  400e87:       7e 0c                   jle    400e95 <func4+0x25>
  400e89:       8d 51 ff                lea    -0x1(%rcx),%edx
  400e8c:       e8 df ff ff ff          callq  400e70 <func4>
  400e91:       01 c0                   add    %eax,%eax
  400e93:       eb 15                   jmp    400eaa <func4+0x3a>
  400e95:       b8 00 00 00 00          mov    $0x0,%eax
  400e9a:       39 f9                   cmp    %edi,%ecx
  400e9c:       7d 0c                   jge    400eaa <func4+0x3a>
  400e9e:       8d 71 01                lea    0x1(%rcx),%esi
  400ea1:       e8 ca ff ff ff          callq  400e70 <func4>
  400ea6:       8d 44 00 01             lea    0x1(%rax,%rax,1),%eax
  400eaa:       48 83 c4 08             add    $0x8,%rsp
  400eae:       c3                      retq

0000000000400eaf <fun7>:
  400eaf:       48 83 ec 08             sub    $0x8,%rsp
  400eb3:       b8 ff ff ff ff          mov    $0xffffffff,%eax
  400eb8:       48 85 ff                test   %rdi,%rdi
  400ebb:       74 29                   je     400ee6 <fun7+0x37>
  400ebd:       8b 17                   mov    (%rdi),%edx
  400ebf:       39 f2                   cmp    %esi,%edx
  400ec1:       7e 0d                   jle    400ed0 <fun7+0x21>
  400ec3:       48 8b 7f 08             mov    0x8(%rdi),%rdi
  400ec7:       e8 e3 ff ff ff          callq  400eaf <fun7>
  400ecc:       01 c0                   add    %eax,%eax
  400ece:       eb 16                   jmp    400ee6 <fun7+0x37>
  400ed0:       b8 00 00 00 00          mov    $0x0,%eax
  400ed5:       39 f2                   cmp    %esi,%edx
  400ed7:       74 0d                   je     400ee6 <fun7+0x37>
  400ed9:       48 8b 7f 10             mov    0x10(%rdi),%rdi
  400edd:       e8 cd ff ff ff          callq  400eaf <fun7>
  400ee2:       8d 44 00 01             lea    0x1(%rax,%rax,1),%eax
  400ee6:       48 83 c4 08             add    $0x8,%rsp
  400eea:       c3                      retq

0000000000400eeb <secret_phase>:
  400eeb:       53                      push   %rbx
  400eec:       e8 5d 06 00 00          callq  40154e <read_line>
  400ef1:       ba 0a 00 00 00          mov    $0xa,%edx
  400ef6:       be 00 00 00 00          mov    $0x0,%esi
  400efb:       48 89 c7                mov    %rax,%rdi
  400efe:       e8 75 fc ff ff          callq  400b78 <strtol@plt>
  400f03:       89 c3                   mov    %eax,%ebx
  400f05:       8d 43 88                lea    -0x78(%rbx),%eax
  400f08:       3d 3a 0b 00 00          cmp    $0xb3a,%eax
  400f0d:       76 05                   jbe    400f14 <secret_phase+0x29>
  400f0f:       e8 de 04 00 00          callq  4013f2 <explode_bomb>
  400f14:       89 de                   mov    %ebx,%esi
  400f16:       bf 20 39 60 00          mov    $0x603920,%edi
  400f1b:       e8 8f ff ff ff          callq  400eaf <fun7>
  400f20:       83 f8 07                cmp    $0x7,%eax
  400f23:       74 05                   je     400f2a <secret_phase+0x3f>
  400f25:       e8 c8 04 00 00          callq  4013f2 <explode_bomb>
  400f2a:       bf c0 23 40 00          mov    $0x4023c0,%edi
  400f2f:       e8 84 fb ff ff          callq  400ab8 <puts@plt>
  400f34:       e8 2a 04 00 00          callq  401363 <phase_defused>
  400f39:       5b                      pop    %rbx
  400f3a:       c3                      retq

0000000000400f3b <phase_6>:
  400f3b:       41 54                   push   %r12
  400f3d:       55                      push   %rbp
  400f3e:       53                      push   %rbx
  400f3f:       48 83 ec 50             sub    $0x50,%rsp
  400f43:       48 8d 6c 24 30          lea    0x30(%rsp),%rbp
  400f48:       48 89 ee                mov    %rbp,%rsi
  400f4b:       e8 3e 05 00 00          callq  40148e <read_six_numbers>
  400f50:       41 bc 00 00 00 00       mov    $0x0,%r12d
  400f56:       8b 45 00                mov    0x0(%rbp),%eax
  400f59:       83 e8 01                sub    $0x1,%eax
  400f5c:       83 f8 05                cmp    $0x5,%eax
  400f5f:       76 05                   jbe    400f66 <phase_6+0x2b>
  400f61:       e8 8c 04 00 00          callq  4013f2 <explode_bomb>
  400f66:       41 83 c4 01             add    $0x1,%r12d
  400f6a:       41 83 fc 06             cmp    $0x6,%r12d
  400f6e:       74 22                   je     400f92 <phase_6+0x57>
  400f70:       44 89 e3                mov    %r12d,%ebx
  400f73:       48 63 c3                movslq %ebx,%rax
  400f76:       8b 55 00                mov    0x0(%rbp),%edx
  400f79:       3b 54 84 30             cmp    0x30(%rsp,%rax,4),%edx
  400f7d:       75 05                   jne    400f84 <phase_6+0x49>
  400f7f:       e8 6e 04 00 00          callq  4013f2 <explode_bomb>
  400f84:       83 c3 01                add    $0x1,%ebx
  400f87:       83 fb 05                cmp    $0x5,%ebx
  400f8a:       7e e7                   jle    400f73 <phase_6+0x38>
  400f8c:       48 83 c5 04             add    $0x4,%rbp
  400f90:       eb c4                   jmp    400f56 <phase_6+0x1b>
  400f92:       bb 00 00 00 00          mov    $0x0,%ebx
  400f97:       4c 8d 44 24 30          lea    0x30(%rsp),%r8
  400f9c:       bd 01 00 00 00          mov    $0x1,%ebp
  400fa1:       be 50 37 60 00          mov    $0x603750,%esi
  400fa6:       48 89 e7                mov    %rsp,%rdi
  400fa9:       eb 19                   jmp    400fc4 <phase_6+0x89>
  400fab:       48 8b 52 08             mov    0x8(%rdx),%rdx
  400faf:       83 c0 01                add    $0x1,%eax
  400fb2:       39 c8                   cmp    %ecx,%eax
  400fb4:       75 f5                   jne    400fab <phase_6+0x70>
  400fb6:       48 89 14 5f             mov    %rdx,(%rdi,%rbx,2)
  400fba:       48 83 c3 04             add    $0x4,%rbx
  400fbe:       48 83 fb 18             cmp    $0x18,%rbx
  400fc2:       74 10                   je     400fd4 <phase_6+0x99>
  400fc4:       41 8b 0c 18             mov    (%r8,%rbx,1),%ecx
  400fc8:       89 e8                   mov    %ebp,%eax
  400fca:       48 89 f2                mov    %rsi,%rdx
  400fcd:       83 f9 01                cmp    $0x1,%ecx
  400fd0:       7f d9                   jg     400fab <phase_6+0x70>
  400fd2:       eb e2                   jmp    400fb6 <phase_6+0x7b>
  400fd4:       48 8b 1c 24             mov    (%rsp),%rbx
  400fd8:       48 8b 44 24 08          mov    0x8(%rsp),%rax
  400fdd:       48 89 43 08             mov    %rax,0x8(%rbx)
  400fe1:       48 8b 54 24 10          mov    0x10(%rsp),%rdx
  400fe6:       48 89 50 08             mov    %rdx,0x8(%rax)
  400fea:       48 8b 44 24 18          mov    0x18(%rsp),%rax
  400fef:       48 89 42 08             mov    %rax,0x8(%rdx)
  400ff3:       48 8b 54 24 20          mov    0x20(%rsp),%rdx
  400ff8:       48 89 50 08             mov    %rdx,0x8(%rax)
  400ffc:       48 8b 44 24 28          mov    0x28(%rsp),%rax
  401001:       48 89 42 08             mov    %rax,0x8(%rdx)
  401005:       48 c7 40 08 00 00 00    movq   $0x0,0x8(%rax)
  40100c:       00
  40100d:       bd 00 00 00 00          mov    $0x0,%ebp
  401012:       48 8b 43 08             mov    0x8(%rbx),%rax
  401016:       8b 13                   mov    (%rbx),%edx
  401018:       3b 10                   cmp    (%rax),%edx
  40101a:       7d 05                   jge    401021 <phase_6+0xe6>
  40101c:       e8 d1 03 00 00          callq  4013f2 <explode_bomb>
  401021:       48 8b 5b 08             mov    0x8(%rbx),%rbx
  401025:       83 c5 01                add    $0x1,%ebp
  401028:       83 fd 05                cmp    $0x5,%ebp
  40102b:       75 e5                   jne    401012 <phase_6+0xd7>
  40102d:       48 83 c4 50             add    $0x50,%rsp
  401031:       5b                      pop    %rbx
  401032:       5d                      pop    %rbp
  401033:       41 5c                   pop    %r12
  401035:       c3                      retq

0000000000401036 <phase_2>:
  401036:       55                      push   %rbp
  401037:       53                      push   %rbx
  401038:       48 83 ec 28             sub    $0x28,%rsp
  40103c:       48 89 e6                mov    %rsp,%rsi
  40103f:       e8 4a 04 00 00          callq  40148e <read_six_numbers>
  401044:       83 3c 24 03             cmpl   $0x3,(%rsp)
  401048:       7f 05                   jg     40104f <phase_2+0x19>
  40104a:       e8 a3 03 00 00          callq  4013f2 <explode_bomb>
  40104f:       48 8d 5c 24 04          lea    0x4(%rsp),%rbx
  401054:       bd 01 00 00 00          mov    $0x1,%ebp
  401059:       89 e8                   mov    %ebp,%eax
  40105b:       03 43 fc                add    -0x4(%rbx),%eax
  40105e:       39 03                   cmp    %eax,(%rbx)
  401060:       74 05                   je     401067 <phase_2+0x31>
  401062:       e8 8b 03 00 00          callq  4013f2 <explode_bomb>
  401067:       83 c5 01                add    $0x1,%ebp
  40106a:       48 83 c3 04             add    $0x4,%rbx
  40106e:       83 fd 06                cmp    $0x6,%ebp
  401071:       75 e6                   jne    401059 <phase_2+0x23>
  401073:       48 83 c4 28             add    $0x28,%rsp
  401077:       5b                      pop    %rbx
  401078:       5d                      pop    %rbp
  401079:       c3                      retq

000000000040107a <phase_5>:
  40107a:       53                      push   %rbx
  40107b:       48 83 ec 10             sub    $0x10,%rsp
  40107f:       48 89 fb                mov    %rdi,%rbx
  401082:       e8 89 01 00 00          callq  401210 <string_length>
  401087:       83 f8 06                cmp    $0x6,%eax
  40108a:       74 05                   je     401091 <phase_5+0x17>
  40108c:       e8 61 03 00 00          callq  4013f2 <explode_bomb>
  401091:       48 89 e0                mov    %rsp,%rax
  401094:       48 8d 73 06             lea    0x6(%rbx),%rsi
  401098:       ba 80 24 40 00          mov    $0x402480,%edx
  40109d:       48 0f be 0b             movsbq (%rbx),%rcx
  4010a1:       83 e1 0f                and    $0xf,%ecx
  4010a4:       0f b6 0c 0a             movzbl (%rdx,%rcx,1),%ecx
  4010a8:       88 08                   mov    %cl,(%rax)
  4010aa:       48 83 c3 01             add    $0x1,%rbx
  4010ae:       48 83 c0 01             add    $0x1,%rax
  4010b2:       48 39 f3                cmp    %rsi,%rbx
  4010b5:       75 e6                   jne    40109d <phase_5+0x23>
  4010b7:       c6 44 24 06 00          movb   $0x0,0x6(%rsp)
  4010bc:       48 89 e7                mov    %rsp,%rdi
  4010bf:       be 2b 24 40 00          mov    $0x40242b,%esi
  4010c4:       e8 63 01 00 00          callq  40122c <strings_not_equal>
  4010c9:       85 c0                   test   %eax,%eax
  4010cb:       74 05                   je     4010d2 <phase_5+0x58>
  4010cd:       e8 20 03 00 00          callq  4013f2 <explode_bomb>
  4010d2:       48 83 c4 10             add    $0x10,%rsp
  4010d6:       5b                      pop    %rbx
  4010d7:       c3                      retq

00000000004010d8 <phase_1>:
  4010d8:       48 83 ec 08             sub    $0x8,%rsp
  4010dc:       be e8 23 40 00          mov    $0x4023e8,%esi
  4010e1:       e8 46 01 00 00          callq  40122c <strings_not_equal>
  4010e6:       85 c0                   test   %eax,%eax
  4010e8:       74 05                   je     4010ef <phase_1+0x17>
  4010ea:       e8 03 03 00 00          callq  4013f2 <explode_bomb>
  4010ef:       48 83 c4 08             add    $0x8,%rsp
  4010f3:       c3                      retq

00000000004010f4 <phase_4>:
  4010f4:       48 83 ec 18             sub    $0x18,%rsp
  4010f8:       48 8d 4c 24 08          lea    0x8(%rsp),%rcx
  4010fd:       48 8d 54 24 0c          lea    0xc(%rsp),%rdx
  401102:       be 0a 25 40 00          mov    $0x40250a,%esi
  401107:       b8 00 00 00 00          mov    $0x0,%eax
  40110c:       e8 b7 f9 ff ff          callq  400ac8 <__isoc99_sscanf@plt>
  401111:       83 f8 02                cmp    $0x2,%eax
  401114:       75 0d                   jne    401123 <phase_4+0x2f>
  401116:       8b 44 24 0c             mov    0xc(%rsp),%eax
  40111a:       85 c0                   test   %eax,%eax
  40111c:       78 05                   js     401123 <phase_4+0x2f>
  40111e:       83 f8 0e                cmp    $0xe,%eax
  401121:       7e 05                   jle    401128 <phase_4+0x34>
  401123:       e8 ca 02 00 00          callq  4013f2 <explode_bomb>
  401128:       ba 0e 00 00 00          mov    $0xe,%edx
  40112d:       be 00 00 00 00          mov    $0x0,%esi
  401132:       8b 7c 24 0c             mov    0xc(%rsp),%edi
  401136:       e8 35 fd ff ff          callq  400e70 <func4>
  40113b:       83 f8 04                cmp    $0x4,%eax
  40113e:       75 07                   jne    401147 <phase_4+0x53>
  401140:       83 7c 24 08 04          cmpl   $0x4,0x8(%rsp)
  401145:       74 05                   je     40114c <phase_4+0x58>
  401147:       e8 a6 02 00 00          callq  4013f2 <explode_bomb>
  40114c:       48 83 c4 18             add    $0x18,%rsp
  401150:       c3                      retq

0000000000401151 <phase_3>:
  401151:       48 83 ec 18             sub    $0x18,%rsp
  401155:       48 8d 4c 24 08          lea    0x8(%rsp),%rcx
  40115a:       48 8d 54 24 0c          lea    0xc(%rsp),%rdx
  40115f:       be 0a 25 40 00          mov    $0x40250a,%esi
  401164:       b8 00 00 00 00          mov    $0x0,%eax
  401169:       e8 5a f9 ff ff          callq  400ac8 <__isoc99_sscanf@plt>
  40116e:       83 f8 01                cmp    $0x1,%eax
  401171:       7f 05                   jg     401178 <phase_3+0x27>
  401173:       e8 7a 02 00 00          callq  4013f2 <explode_bomb>
  401178:       83 7c 24 0c 07          cmpl   $0x7,0xc(%rsp)
  40117d:       77 66                   ja     4011e5 <phase_3+0x94>
  40117f:       8b 44 24 0c             mov    0xc(%rsp),%eax
  401183:       ff 24 c5 40 24 40 00    jmpq   *0x402440(,%rax,8)
  40118a:       b8 00 00 00 00          mov    $0x0,%eax
  40118f:       eb 4d                   jmp    4011de <phase_3+0x8d>
  401191:       b8 00 00 00 00          mov    $0x0,%eax
  401196:       eb 41                   jmp    4011d9 <phase_3+0x88>
  401198:       b8 00 00 00 00          mov    $0x0,%eax
  40119d:       eb 35                   jmp    4011d4 <phase_3+0x83>
  40119f:       b8 00 00 00 00          mov    $0x0,%eax
  4011a4:       eb 29                   jmp    4011cf <phase_3+0x7e>
  4011a6:       b8 00 00 00 00          mov    $0x0,%eax
  4011ab:       eb 1d                   jmp    4011ca <phase_3+0x79>
  4011ad:       b8 00 00 00 00          mov    $0x0,%eax
  4011b2:       eb 11                   jmp    4011c5 <phase_3+0x74>
  4011b4:       b8 1f 01 00 00          mov    $0x11f,%eax
  4011b9:       eb 05                   jmp    4011c0 <phase_3+0x6f>
  4011bb:       b8 00 00 00 00          mov    $0x0,%eax
  4011c0:       2d 32 03 00 00          sub    $0x332,%eax
  4011c5:       05 ec 02 00 00          add    $0x2ec,%eax
  4011ca:       2d 1b 01 00 00          sub    $0x11b,%eax
  4011cf:       05 1b 01 00 00          add    $0x11b,%eax
  4011d4:       2d 1b 01 00 00          sub    $0x11b,%eax
  4011d9:       05 1b 01 00 00          add    $0x11b,%eax
  4011de:       2d 1b 01 00 00          sub    $0x11b,%eax
  4011e3:       eb 0a                   jmp    4011ef <phase_3+0x9e>
  4011e5:       e8 08 02 00 00          callq  4013f2 <explode_bomb>
  4011ea:       b8 00 00 00 00          mov    $0x0,%eax
  4011ef:       83 7c 24 0c 05          cmpl   $0x5,0xc(%rsp)
  4011f4:       7f 06                   jg     4011fc <phase_3+0xab>
  4011f6:       3b 44 24 08             cmp    0x8(%rsp),%eax
  4011fa:       74 05                   je     401201 <phase_3+0xb0>
  4011fc:       e8 f1 01 00 00          callq  4013f2 <explode_bomb>
  401201:       48 83 c4 18             add    $0x18,%rsp
  401205:       c3                      retq
  401206:       90                      nop
  401207:       90                      nop
  401208:       90                      nop
  401209:       90                      nop
  40120a:       90                      nop
  40120b:       90                      nop
  40120c:       90                      nop
  40120d:       90                      nop
  40120e:       90                      nop
  40120f:       90                      nop

0000000000401210 <string_length>:
  401210:       48 89 fa                mov    %rdi,%rdx
  401213:       b8 00 00 00 00          mov    $0x0,%eax
  401218:       80 3f 00                cmpb   $0x0,(%rdi)
  40121b:       74 0d                   je     40122a <string_length+0x1a>
  40121d:       48 83 c2 01             add    $0x1,%rdx
  401221:       89 d0                   mov    %edx,%eax
  401223:       29 f8                   sub    %edi,%eax
  401225:       80 3a 00                cmpb   $0x0,(%rdx)
  401228:       75 f3                   jne    40121d <string_length+0xd>
  40122a:       f3 c3                   repz retq

000000000040122c <strings_not_equal>:
  40122c:       41 54                   push   %r12
  40122e:       55                      push   %rbp
  40122f:       53                      push   %rbx
  401230:       48 89 fb                mov    %rdi,%rbx
  401233:       48 89 f5                mov    %rsi,%rbp
  401236:       e8 d5 ff ff ff          callq  401210 <string_length>
  40123b:       41 89 c4                mov    %eax,%r12d
  40123e:       48 89 ef                mov    %rbp,%rdi
  401241:       e8 ca ff ff ff          callq  401210 <string_length>
  401246:       41 39 c4                cmp    %eax,%r12d
  401249:       75 26                   jne    401271 <strings_not_equal+0x45>
  40124b:       0f b6 13                movzbl (%rbx),%edx
  40124e:       84 d2                   test   %dl,%dl
  401250:       74 26                   je     401278 <strings_not_equal+0x4c>
  401252:       48 89 e8                mov    %rbp,%rax
  401255:       3a 55 00                cmp    0x0(%rbp),%dl
  401258:       74 0a                   je     401264 <strings_not_equal+0x38>
  40125a:       eb 15                   jmp    401271 <strings_not_equal+0x45>
  40125c:       48 83 c0 01             add    $0x1,%rax
  401260:       3a 10                   cmp    (%rax),%dl
  401262:       75 0d                   jne    401271 <strings_not_equal+0x45>
  401264:       48 83 c3 01             add    $0x1,%rbx
  401268:       0f b6 13                movzbl (%rbx),%edx
  40126b:       84 d2                   test   %dl,%dl
  40126d:       75 ed                   jne    40125c <strings_not_equal+0x30>
  40126f:       eb 07                   jmp    401278 <strings_not_equal+0x4c>
  401271:       b8 01 00 00 00          mov    $0x1,%eax
  401276:       eb 05                   jmp    40127d <strings_not_equal+0x51>
  401278:       b8 00 00 00 00          mov    $0x0,%eax
  40127d:       5b                      pop    %rbx
  40127e:       5d                      pop    %rbp
  40127f:       41 5c                   pop    %r12
  401281:       c3                      retq

0000000000401282 <initialize_bomb_solve>:
  401282:       f3 c3                   repz retq

0000000000401284 <invalid_phase>:
  401284:       48 83 ec 08             sub    $0x8,%rsp
  401288:       48 89 fe                mov    %rdi,%rsi
  40128b:       bf 90 24 40 00          mov    $0x402490,%edi
  401290:       b8 00 00 00 00          mov    $0x0,%eax
  401295:       e8 ee f7 ff ff          callq  400a88 <printf@plt>
  40129a:       bf 08 00 00 00          mov    $0x8,%edi
  40129f:       e8 34 f8 ff ff          callq  400ad8 <exit@plt>

00000000004012a4 <send_msg>:
  4012a4:       53                      push   %rbx
  4012a5:       48 81 ec 00 40 00 00    sub    $0x4000,%rsp
  4012ac:       89 fa                   mov    %edi,%edx
  4012ae:       44 8b 05 b3 2a 20 00    mov    0x202ab3(%rip),%r8d        # 603d68 <num_input_strings>
  4012b5:       4d 63 c8                movslq %r8d,%r9
  4012b8:       49 83 e9 01             sub    $0x1,%r9
  4012bc:       4d 69 c9 b4 00 00 00    imul   $0xb4,%r9,%r9
  4012c3:       49 81 c1 80 3d 60 00    add    $0x603d80,%r9
  4012ca:       4c 89 cf                mov    %r9,%rdi
  4012cd:       b8 00 00 00 00          mov    $0x0,%eax
  4012d2:       48 c7 c1 ff ff ff ff    mov    $0xffffffffffffffff,%rcx
  4012d9:       f2 ae                   repnz scas %es:(%rdi),%al
  4012db:       48 f7 d1                not    %rcx
  4012de:       48 83 c1 63             add    $0x63,%rcx
  4012e2:       48 81 f9 00 20 00 00    cmp    $0x2000,%rcx
  4012e9:       76 14                   jbe    4012ff <send_msg+0x5b>
  4012eb:       bf c8 25 40 00          mov    $0x4025c8,%edi
  4012f0:       e8 93 f7 ff ff          callq  400a88 <printf@plt>
  4012f5:       bf 08 00 00 00          mov    $0x8,%edi
  4012fa:       e8 d9 f7 ff ff          callq  400ad8 <exit@plt>
  4012ff:       85 d2                   test   %edx,%edx
  401301:       b8 a1 24 40 00          mov    $0x4024a1,%eax
  401306:       b9 aa 24 40 00          mov    $0x4024aa,%ecx
  40130b:       48 0f 44 c8             cmove  %rax,%rcx
  40130f:       48 8d 9c 24 00 20 00    lea    0x2000(%rsp),%rbx
  401316:       00
  401317:       8b 15 c3 1f 20 00       mov    0x201fc3(%rip),%edx        # 6032e0 <bomb_id>
  40131d:       be b2 24 40 00          mov    $0x4024b2,%esi
  401322:       48 89 df                mov    %rbx,%rdi
  401325:       b8 00 00 00 00          mov    $0x0,%eax
  40132a:       e8 29 f8 ff ff          callq  400b58 <sprintf@plt>
  40132f:       48 89 e1                mov    %rsp,%rcx
  401332:       ba 00 00 00 00          mov    $0x0,%edx
  401337:       48 89 de                mov    %rbx,%rsi
  40133a:       bf 00 33 60 00          mov    $0x603300,%edi
  40133f:       e8 8f 0d 00 00          callq  4020d3 <driver_post>
  401344:       85 c0                   test   %eax,%eax
  401346:       79 12                   jns    40135a <send_msg+0xb6>
  401348:       48 89 e7                mov    %rsp,%rdi
  40134b:       e8 68 f7 ff ff          callq  400ab8 <puts@plt>
  401350:       bf 00 00 00 00          mov    $0x0,%edi
  401355:       e8 7e f7 ff ff          callq  400ad8 <exit@plt>
  40135a:       48 81 c4 00 40 00 00    add    $0x4000,%rsp
  401361:       5b                      pop    %rbx
  401362:       c3                      retq

0000000000401363 <phase_defused>:
  401363:       48 81 ec d8 00 00 00    sub    $0xd8,%rsp
  40136a:       bf 01 00 00 00          mov    $0x1,%edi
  40136f:       e8 30 ff ff ff          callq  4012a4 <send_msg>
  401374:       83 3d ed 29 20 00 06    cmpl   $0x6,0x2029ed(%rip)        # 603d68 <num_input_strings>
  40137b:       75 6d                   jne    4013ea <phase_defused+0x87>
  40137d:       48 8d 4c 24 08          lea    0x8(%rsp),%rcx
  401382:       48 8d 54 24 0c          lea    0xc(%rsp),%rdx
  401387:       4c 8d 44 24 10          lea    0x10(%rsp),%r8
  40138c:       be be 24 40 00          mov    $0x4024be,%esi
  401391:       bf 9c 3f 60 00          mov    $0x603f9c,%edi
  401396:       b8 00 00 00 00          mov    $0x0,%eax
  40139b:       e8 28 f7 ff ff          callq  400ac8 <__isoc99_sscanf@plt>
  4013a0:       83 f8 03                cmp    $0x3,%eax
  4013a3:       75 31                   jne    4013d6 <phase_defused+0x73>
  4013a5:       48 8d 7c 24 10          lea    0x10(%rsp),%rdi
  4013aa:       be c7 24 40 00          mov    $0x4024c7,%esi
  4013af:       e8 78 fe ff ff          callq  40122c <strings_not_equal>
  4013b4:       85 c0                   test   %eax,%eax
  4013b6:       75 1e                   jne    4013d6 <phase_defused+0x73>
  4013b8:       bf f0 25 40 00          mov    $0x4025f0,%edi
  4013bd:       e8 f6 f6 ff ff          callq  400ab8 <puts@plt>
  4013c2:       bf 18 26 40 00          mov    $0x402618,%edi
  4013c7:       e8 ec f6 ff ff          callq  400ab8 <puts@plt>
  4013cc:       b8 00 00 00 00          mov    $0x0,%eax
  4013d1:       e8 15 fb ff ff          callq  400eeb <secret_phase>
  4013d6:       bf 50 26 40 00          mov    $0x402650,%edi
  4013db:       e8 d8 f6 ff ff          callq  400ab8 <puts@plt>
  4013e0:       bf 80 26 40 00          mov    $0x402680,%edi
  4013e5:       e8 ce f6 ff ff          callq  400ab8 <puts@plt>
  4013ea:       48 81 c4 d8 00 00 00    add    $0xd8,%rsp
  4013f1:       c3                      retq

00000000004013f2 <explode_bomb>:
  4013f2:       48 83 ec 08             sub    $0x8,%rsp
  4013f6:       bf d2 24 40 00          mov    $0x4024d2,%edi
  4013fb:       e8 b8 f6 ff ff          callq  400ab8 <puts@plt>
  401400:       bf db 24 40 00          mov    $0x4024db,%edi
  401405:       e8 ae f6 ff ff          callq  400ab8 <puts@plt>
  40140a:       bf 00 00 00 00          mov    $0x0,%edi
  40140f:       e8 90 fe ff ff          callq  4012a4 <send_msg>
  401414:       bf c8 26 40 00          mov    $0x4026c8,%edi
  401419:       e8 9a f6 ff ff          callq  400ab8 <puts@plt>
  40141e:       bf 08 00 00 00          mov    $0x8,%edi
  401423:       e8 b0 f6 ff ff          callq  400ad8 <exit@plt>

0000000000401428 <read_ten_numbers>:
  401428:       48 83 ec 38             sub    $0x38,%rsp
  40142c:       48 89 f2                mov    %rsi,%rdx
  40142f:       48 8d 4e 04             lea    0x4(%rsi),%rcx
  401433:       48 8d 46 24             lea    0x24(%rsi),%rax
  401437:       48 89 44 24 28          mov    %rax,0x28(%rsp)
  40143c:       48 8d 46 20             lea    0x20(%rsi),%rax
  401440:       48 89 44 24 20          mov    %rax,0x20(%rsp)
  401445:       48 8d 46 1c             lea    0x1c(%rsi),%rax
  401449:       48 89 44 24 18          mov    %rax,0x18(%rsp)
  40144e:       48 8d 46 18             lea    0x18(%rsi),%rax
  401452:       48 89 44 24 10          mov    %rax,0x10(%rsp)
  401457:       48 8d 46 14             lea    0x14(%rsi),%rax
  40145b:       48 89 44 24 08          mov    %rax,0x8(%rsp)
  401460:       48 8d 46 10             lea    0x10(%rsi),%rax
  401464:       48 89 04 24             mov    %rax,(%rsp)
  401468:       4c 8d 4e 0c             lea    0xc(%rsi),%r9
  40146c:       4c 8d 46 08             lea    0x8(%rsi),%r8
  401470:       be f2 24 40 00          mov    $0x4024f2,%esi
  401475:       b8 00 00 00 00          mov    $0x0,%eax
  40147a:       e8 49 f6 ff ff          callq  400ac8 <__isoc99_sscanf@plt>
  40147f:       83 f8 09                cmp    $0x9,%eax
  401482:       7f 05                   jg     401489 <read_ten_numbers+0x61>
  401484:       e8 69 ff ff ff          callq  4013f2 <explode_bomb>
  401489:       48 83 c4 38             add    $0x38,%rsp
  40148d:       c3                      retq

000000000040148e <read_six_numbers>:
  40148e:       48 83 ec 18             sub    $0x18,%rsp
  401492:       48 89 f2                mov    %rsi,%rdx
  401495:       48 8d 4e 04             lea    0x4(%rsi),%rcx
  401499:       48 8d 46 14             lea    0x14(%rsi),%rax
  40149d:       48 89 44 24 08          mov    %rax,0x8(%rsp)
  4014a2:       48 8d 46 10             lea    0x10(%rsi),%rax
  4014a6:       48 89 04 24             mov    %rax,(%rsp)
  4014aa:       4c 8d 4e 0c             lea    0xc(%rsi),%r9
  4014ae:       4c 8d 46 08             lea    0x8(%rsi),%r8
  4014b2:       be fe 24 40 00          mov    $0x4024fe,%esi
  4014b7:       b8 00 00 00 00          mov    $0x0,%eax
  4014bc:       e8 07 f6 ff ff          callq  400ac8 <__isoc99_sscanf@plt>
  4014c1:       83 f8 05                cmp    $0x5,%eax
  4014c4:       7f 05                   jg     4014cb <read_six_numbers+0x3d>
  4014c6:       e8 27 ff ff ff          callq  4013f2 <explode_bomb>
  4014cb:       48 83 c4 18             add    $0x18,%rsp
  4014cf:       90                      nop
  4014d0:       c3                      retq

00000000004014d1 <blank_line>:
  4014d1:       55                      push   %rbp
  4014d2:       53                      push   %rbx
  4014d3:       48 83 ec 08             sub    $0x8,%rsp
  4014d7:       48 89 fd                mov    %rdi,%rbp
  4014da:       eb 1e                   jmp    4014fa <blank_line+0x29>
  4014dc:       e8 67 f6 ff ff          callq  400b48 <__ctype_b_loc@plt>
  4014e1:       48 0f be db             movsbq %bl,%rbx
  4014e5:       48 8b 00                mov    (%rax),%rax
  4014e8:       f6 44 58 01 20          testb  $0x20,0x1(%rax,%rbx,2)
  4014ed:       75 07                   jne    4014f6 <blank_line+0x25>
  4014ef:       b8 00 00 00 00          mov    $0x0,%eax
  4014f4:       eb 11                   jmp    401507 <blank_line+0x36>
  4014f6:       48 83 c5 01             add    $0x1,%rbp
  4014fa:       0f b6 5d 00             movzbl 0x0(%rbp),%ebx
  4014fe:       84 db                   test   %bl,%bl
  401500:       75 da                   jne    4014dc <blank_line+0xb>
  401502:       b8 01 00 00 00          mov    $0x1,%eax
  401507:       48 83 c4 08             add    $0x8,%rsp
  40150b:       5b                      pop    %rbx
  40150c:       5d                      pop    %rbp
  40150d:       c3                      retq

000000000040150e <skip>:
  40150e:       53                      push   %rbx
  40150f:       48 63 3d 52 28 20 00    movslq 0x202852(%rip),%rdi        # 603d68 <num_input_strings>
  401516:       48 69 ff b4 00 00 00    imul   $0xb4,%rdi,%rdi
  40151d:       48 81 c7 80 3d 60 00    add    $0x603d80,%rdi
  401524:       48 8b 15 45 28 20 00    mov    0x202845(%rip),%rdx        # 603d70 <infile>
  40152b:       be b4 00 00 00          mov    $0xb4,%esi
  401530:       e8 f3 f5 ff ff          callq  400b28 <fgets@plt>
  401535:       48 89 c3                mov    %rax,%rbx
  401538:       48 85 c0                test   %rax,%rax
  40153b:       74 0c                   je     401549 <skip+0x3b>
  40153d:       48 89 c7                mov    %rax,%rdi
  401540:       e8 8c ff ff ff          callq  4014d1 <blank_line>
  401545:       85 c0                   test   %eax,%eax
  401547:       75 c6                   jne    40150f <skip+0x1>
  401549:       48 89 d8                mov    %rbx,%rax
  40154c:       5b                      pop    %rbx
  40154d:       c3                      retq

000000000040154e <read_line>:
  40154e:       55                      push   %rbp
  40154f:       53                      push   %rbx
  401550:       48 83 ec 08             sub    $0x8,%rsp
  401554:       b8 00 00 00 00          mov    $0x0,%eax
  401559:       e8 b0 ff ff ff          callq  40150e <skip>
  40155e:       48 85 c0                test   %rax,%rax
  401561:       75 6e                   jne    4015d1 <read_line+0x83>
  401563:       48 8b 05 d6 27 20 00    mov    0x2027d6(%rip),%rax        # 603d40 <__bss_start>
  40156a:       48 39 05 ff 27 20 00    cmp    %rax,0x2027ff(%rip)        # 603d70 <infile>
  401571:       75 14                   jne    401587 <read_line+0x39>
  401573:       bf 10 25 40 00          mov    $0x402510,%edi
  401578:       e8 3b f5 ff ff          callq  400ab8 <puts@plt>
  40157d:       bf 08 00 00 00          mov    $0x8,%edi
  401582:       e8 51 f5 ff ff          callq  400ad8 <exit@plt>
  401587:       bf 2e 25 40 00          mov    $0x40252e,%edi
  40158c:       e8 47 f6 ff ff          callq  400bd8 <getenv@plt>
  401591:       48 85 c0                test   %rax,%rax
  401594:       74 0a                   je     4015a0 <read_line+0x52>
  401596:       bf 00 00 00 00          mov    $0x0,%edi
  40159b:       e8 38 f5 ff ff          callq  400ad8 <exit@plt>
  4015a0:       48 8b 05 99 27 20 00    mov    0x202799(%rip),%rax        # 603d40 <__bss_start>
  4015a7:       48 89 05 c2 27 20 00    mov    %rax,0x2027c2(%rip)        # 603d70 <infile>
  4015ae:       b8 00 00 00 00          mov    $0x0,%eax
  4015b3:       e8 56 ff ff ff          callq  40150e <skip>
  4015b8:       48 85 c0                test   %rax,%rax
  4015bb:       75 14                   jne    4015d1 <read_line+0x83>
  4015bd:       bf 10 25 40 00          mov    $0x402510,%edi
  4015c2:       e8 f1 f4 ff ff          callq  400ab8 <puts@plt>
  4015c7:       bf 00 00 00 00          mov    $0x0,%edi
  4015cc:       e8 07 f5 ff ff          callq  400ad8 <exit@plt>
  4015d1:       bd 80 3d 60 00          mov    $0x603d80,%ebp
  4015d6:       48 63 05 8b 27 20 00    movslq 0x20278b(%rip),%rax        # 603d68 <num_input_strings>
  4015dd:       48 69 c0 b4 00 00 00    imul   $0xb4,%rax,%rax
  4015e4:       48 8d b8 80 3d 60 00    lea    0x603d80(%rax),%rdi
  4015eb:       b8 00 00 00 00          mov    $0x0,%eax
  4015f0:       48 c7 c1 ff ff ff ff    mov    $0xffffffffffffffff,%rcx
  4015f7:       f2 ae                   repnz scas %es:(%rdi),%al
  4015f9:       48 f7 d1                not    %rcx
  4015fc:       8d 59 ff                lea    -0x1(%rcx),%ebx
  4015ff:       81 fb b2 00 00 00       cmp    $0xb2,%ebx
  401605:       7e 47                   jle    40164e <read_line+0x100>
  401607:       bf 39 25 40 00          mov    $0x402539,%edi
  40160c:       e8 a7 f4 ff ff          callq  400ab8 <puts@plt>
  401611:       8b 05 51 27 20 00       mov    0x202751(%rip),%eax        # 603d68 <num_input_strings>
  401617:       8d 50 01                lea    0x1(%rax),%edx
  40161a:       89 15 48 27 20 00       mov    %edx,0x202748(%rip)        # 603d68 <num_input_strings>
  401620:       48 98                   cltq
  401622:       48 69 c0 b4 00 00 00    imul   $0xb4,%rax,%rax
  401629:       48 8d 44 05 00          lea    0x0(%rbp,%rax,1),%rax
  40162e:       c7 00 2a 2a 2a 74       movl   $0x742a2a2a,(%rax)
  401634:       c7 40 04 72 75 6e 63    movl   $0x636e7572,0x4(%rax)
  40163b:       c7 40 08 61 74 65 64    movl   $0x64657461,0x8(%rax)
  401642:       c7 40 0c 2a 2a 2a 00    movl   $0x2a2a2a,0xc(%rax)
  401649:       e8 a4 fd ff ff          callq  4013f2 <explode_bomb>
  40164e:       8b 15 14 27 20 00       mov    0x202714(%rip),%edx        # 603d68 <num_input_strings>
  401654:       83 eb 01                sub    $0x1,%ebx
  401657:       48 63 db                movslq %ebx,%rbx
  40165a:       48 63 c2                movslq %edx,%rax
  40165d:       48 69 c0 b4 00 00 00    imul   $0xb4,%rax,%rax
  401664:       c6 84 03 80 3d 60 00    movb   $0x0,0x603d80(%rbx,%rax,1)
  40166b:       00
  40166c:       83 c2 01                add    $0x1,%edx
  40166f:       89 15 f3 26 20 00       mov    %edx,0x2026f3(%rip)        # 603d68 <num_input_strings>
  401675:       48 8d 44 05 00          lea    0x0(%rbp,%rax,1),%rax
  40167a:       48 83 c4 08             add    $0x8,%rsp
  40167e:       5b                      pop    %rbx
  40167f:       5d                      pop    %rbp
  401680:       c3                      retq

0000000000401681 <initialize_bomb>:
  401681:       55                      push   %rbp
  401682:       53                      push   %rbx
  401683:       48 81 ec 48 20 00 00    sub    $0x2048,%rsp
  40168a:       be 3e 17 40 00          mov    $0x40173e,%esi
  40168f:       bf 02 00 00 00          mov    $0x2,%edi
  401694:       e8 1f f5 ff ff          callq  400bb8 <signal@plt>
  401699:       48 8d bc 24 00 20 00    lea    0x2000(%rsp),%rdi
  4016a0:       00
  4016a1:       be 40 00 00 00          mov    $0x40,%esi
  4016a6:       e8 ed f4 ff ff          callq  400b98 <gethostname@plt>
  4016ab:       85 c0                   test   %eax,%eax
  4016ad:       75 1b                   jne    4016ca <initialize_bomb+0x49>
  4016af:       48 8b 3d 8a 22 20 00    mov    0x20228a(%rip),%rdi        # 603940 <host_table>
  4016b6:       bb 48 39 60 00          mov    $0x603948,%ebx
  4016bb:       48 8d ac 24 00 20 00    lea    0x2000(%rsp),%rbp
  4016c2:       00
  4016c3:       48 85 ff                test   %rdi,%rdi
  4016c6:       75 16                   jne    4016de <initialize_bomb+0x5d>
  4016c8:       eb 56                   jmp    401720 <initialize_bomb+0x9f>
  4016ca:       bf f0 26 40 00          mov    $0x4026f0,%edi
  4016cf:       e8 e4 f3 ff ff          callq  400ab8 <puts@plt>
  4016d4:       bf 08 00 00 00          mov    $0x8,%edi
  4016d9:       e8 fa f3 ff ff          callq  400ad8 <exit@plt>
  4016de:       48 89 ee                mov    %rbp,%rsi
  4016e1:       e8 02 f4 ff ff          callq  400ae8 <strcasecmp@plt>
  4016e6:       85 c0                   test   %eax,%eax
  4016e8:       74 0e                   je     4016f8 <initialize_bomb+0x77>
  4016ea:       48 8b 3b                mov    (%rbx),%rdi
  4016ed:       48 83 c3 08             add    $0x8,%rbx
  4016f1:       48 85 ff                test   %rdi,%rdi
  4016f4:       75 e8                   jne    4016de <initialize_bomb+0x5d>
  4016f6:       eb 28                   jmp    401720 <initialize_bomb+0x9f>
  4016f8:       48 89 e7                mov    %rsp,%rdi
  4016fb:       e8 90 00 00 00          callq  401790 <init_driver>
  401700:       85 c0                   test   %eax,%eax
  401702:       79 30                   jns    401734 <initialize_bomb+0xb3>
  401704:       48 89 e6                mov    %rsp,%rsi
  401707:       bf 54 25 40 00          mov    $0x402554,%edi
  40170c:       b8 00 00 00 00          mov    $0x0,%eax
  401711:       e8 72 f3 ff ff          callq  400a88 <printf@plt>
  401716:       bf 08 00 00 00          mov    $0x8,%edi
  40171b:       e8 b8 f3 ff ff          callq  400ad8 <exit@plt>
  401720:       bf 28 27 40 00          mov    $0x402728,%edi
  401725:       e8 8e f3 ff ff          callq  400ab8 <puts@plt>
  40172a:       bf 08 00 00 00          mov    $0x8,%edi
  40172f:       e8 a4 f3 ff ff          callq  400ad8 <exit@plt>
  401734:       48 81 c4 48 20 00 00    add    $0x2048,%rsp
  40173b:       5b                      pop    %rbx
  40173c:       5d                      pop    %rbp
  40173d:       c3                      retq

000000000040173e <sig_handler>:
  40173e:       48 83 ec 08             sub    $0x8,%rsp
  401742:       bf 60 27 40 00          mov    $0x402760,%edi
  401747:       e8 6c f3 ff ff          callq  400ab8 <puts@plt>
  40174c:       bf 03 00 00 00          mov    $0x3,%edi
  401751:       e8 12 f4 ff ff          callq  400b68 <sleep@plt>
  401756:       bf 6e 25 40 00          mov    $0x40256e,%edi
  40175b:       b8 00 00 00 00          mov    $0x0,%eax
  401760:       e8 23 f3 ff ff          callq  400a88 <printf@plt>
  401765:       48 8b 3d e4 25 20 00    mov    0x2025e4(%rip),%rdi        # 603d50 <stdout@@GLIBC_2.2.5>
  40176c:       e8 c7 f4 ff ff          callq  400c38 <fflush@plt>
  401771:       bf 01 00 00 00          mov    $0x1,%edi
  401776:       e8 ed f3 ff ff          callq  400b68 <sleep@plt>
  40177b:       bf 76 25 40 00          mov    $0x402576,%edi
  401780:       e8 33 f3 ff ff          callq  400ab8 <puts@plt>
  401785:       bf 10 00 00 00          mov    $0x10,%edi
  40178a:       e8 49 f3 ff ff          callq  400ad8 <exit@plt>
  40178f:       90                      nop

0000000000401790 <init_driver>:
  401790:       41 54                   push   %r12
  401792:       55                      push   %rbp
  401793:       53                      push   %rbx
  401794:       48 83 ec 10             sub    $0x10,%rsp
  401798:       49 89 fc                mov    %rdi,%r12
  40179b:       be 01 00 00 00          mov    $0x1,%esi
  4017a0:       bf 0d 00 00 00          mov    $0xd,%edi
  4017a5:       e8 0e f4 ff ff          callq  400bb8 <signal@plt>
  4017aa:       be 01 00 00 00          mov    $0x1,%esi
  4017af:       bf 1d 00 00 00          mov    $0x1d,%edi
  4017b4:       e8 ff f3 ff ff          callq  400bb8 <signal@plt>
  4017b9:       be 01 00 00 00          mov    $0x1,%esi
  4017be:       bf 1d 00 00 00          mov    $0x1d,%edi
  4017c3:       e8 f0 f3 ff ff          callq  400bb8 <signal@plt>
  4017c8:       ba 00 00 00 00          mov    $0x0,%edx
  4017cd:       be 01 00 00 00          mov    $0x1,%esi
  4017d2:       bf 02 00 00 00          mov    $0x2,%edi
  4017d7:       e8 ec f3 ff ff          callq  400bc8 <socket@plt>
  4017dc:       89 c5                   mov    %eax,%ebp
  4017de:       85 c0                   test   %eax,%eax
  4017e0:       79 62                   jns    401844 <init_driver+0xb4>
  4017e2:       41 c7 04 24 45 72 72    movl   $0x6f727245,(%r12)
  4017e9:       6f
  4017ea:       41 c7 44 24 04 72 3a    movl   $0x43203a72,0x4(%r12)
  4017f1:       20 43
  4017f3:       41 c7 44 24 08 6c 69    movl   $0x6e65696c,0x8(%r12)
  4017fa:       65 6e
  4017fc:       41 c7 44 24 0c 74 20    movl   $0x6e752074,0xc(%r12)
  401803:       75 6e
  401805:       41 c7 44 24 10 61 62    movl   $0x656c6261,0x10(%r12)
  40180c:       6c 65
  40180e:       41 c7 44 24 14 20 74    movl   $0x206f7420,0x14(%r12)
  401815:       6f 20
  401817:       41 c7 44 24 18 63 72    movl   $0x61657263,0x18(%r12)
  40181e:       65 61
  401820:       41 c7 44 24 1c 74 65    movl   $0x73206574,0x1c(%r12)
  401827:       20 73
  401829:       41 c7 44 24 20 6f 63    movl   $0x656b636f,0x20(%r12)
  401830:       6b 65
  401832:       66 41 c7 44 24 24 74    movw   $0x74,0x24(%r12)
  401839:       00
  40183a:       b8 ff ff ff ff          mov    $0xffffffff,%eax
  40183f:       e9 18 01 00 00          jmpq   40195c <init_driver+0x1cc>
  401844:       bf 7e 25 40 00          mov    $0x40257e,%edi
  401849:       e8 5a f2 ff ff          callq  400aa8 <gethostbyname@plt>
  40184e:       48 85 c0                test   %rax,%rax
  401851:       0f 85 81 00 00 00       jne    4018d8 <init_driver+0x148>
  401857:       41 c7 04 24 45 72 72    movl   $0x6f727245,(%r12)
  40185e:       6f
  40185f:       41 c7 44 24 04 72 3a    movl   $0x44203a72,0x4(%r12)
  401866:       20 44
  401868:       41 c7 44 24 08 4e 53    movl   $0x6920534e,0x8(%r12)
  40186f:       20 69
  401871:       41 c7 44 24 0c 73 20    movl   $0x6e752073,0xc(%r12)
  401878:       75 6e
  40187a:       41 c7 44 24 10 61 62    movl   $0x656c6261,0x10(%r12)
  401881:       6c 65
  401883:       41 c7 44 24 14 20 74    movl   $0x206f7420,0x14(%r12)
  40188a:       6f 20
  40188c:       41 c7 44 24 18 72 65    movl   $0x6f736572,0x18(%r12)
  401893:       73 6f
  401895:       41 c7 44 24 1c 6c 76    movl   $0x2065766c,0x1c(%r12)
  40189c:       65 20
  40189e:       41 c7 44 24 20 73 65    movl   $0x76726573,0x20(%r12)
  4018a5:       72 76
  4018a7:       41 c7 44 24 24 65 72    movl   $0x61207265,0x24(%r12)
  4018ae:       20 61
  4018b0:       41 c7 44 24 28 64 64    movl   $0x65726464,0x28(%r12)
  4018b7:       72 65
  4018b9:       66 41 c7 44 24 2c 73    movw   $0x7373,0x2c(%r12)
  4018c0:       73
  4018c1:       41 c6 44 24 2e 00       movb   $0x0,0x2e(%r12)
  4018c7:       89 ef                   mov    %ebp,%edi
  4018c9:       e8 ca f1 ff ff          callq  400a98 <close@plt>
  4018ce:       b8 ff ff ff ff          mov    $0xffffffff,%eax
  4018d3:       e9 84 00 00 00          jmpq   40195c <init_driver+0x1cc>
  4018d8:       48 c7 04 24 00 00 00    movq   $0x0,(%rsp)
  4018df:       00
  4018e0:       48 c7 44 24 08 00 00    movq   $0x0,0x8(%rsp)
  4018e7:       00 00
  4018e9:       66 c7 04 24 02 00       movw   $0x2,(%rsp)
  4018ef:       48 63 50 14             movslq 0x14(%rax),%rdx
  4018f3:       48 8d 74 24 04          lea    0x4(%rsp),%rsi
  4018f8:       48 8b 40 18             mov    0x18(%rax),%rax
  4018fc:       48 8b 38                mov    (%rax),%rdi
  4018ff:       e8 34 f2 ff ff          callq  400b38 <bcopy@plt>
  401904:       66 c7 44 24 02 3b 6e    movw   $0x6e3b,0x2(%rsp)
  40190b:       ba 10 00 00 00          mov    $0x10,%edx
  401910:       48 89 e6                mov    %rsp,%rsi
  401913:       89 ef                   mov    %ebp,%edi
  401915:       e8 6e f2 ff ff          callq  400b88 <connect@plt>
  40191a:       85 c0                   test   %eax,%eax
  40191c:       79 25                   jns    401943 <init_driver+0x1b3>
  40191e:       ba 7e 25 40 00          mov    $0x40257e,%edx
  401923:       be d8 27 40 00          mov    $0x4027d8,%esi
  401928:       4c 89 e7                mov    %r12,%rdi
  40192b:       b8 00 00 00 00          mov    $0x0,%eax
  401930:       e8 23 f2 ff ff          callq  400b58 <sprintf@plt>
  401935:       89 ef                   mov    %ebp,%edi
  401937:       e8 5c f1 ff ff          callq  400a98 <close@plt>
  40193c:       b8 ff ff ff ff          mov    $0xffffffff,%eax
  401941:       eb 19                   jmp    40195c <init_driver+0x1cc>
  401943:       89 ef                   mov    %ebp,%edi
  401945:       e8 4e f1 ff ff          callq  400a98 <close@plt>
  40194a:       66 41 c7 04 24 4f 4b    movw   $0x4b4f,(%r12)
  401951:       41 c6 44 24 02 00       movb   $0x0,0x2(%r12)
  401957:       b8 00 00 00 00          mov    $0x0,%eax
  40195c:       48 83 c4 10             add    $0x10,%rsp
  401960:       5b                      pop    %rbx
  401961:       5d                      pop    %rbp
  401962:       41 5c                   pop    %r12
  401964:       c3                      retq

0000000000401965 <init_timeout>:
  401965:       53                      push   %rbx
  401966:       89 fb                   mov    %edi,%ebx
  401968:       85 ff                   test   %edi,%edi
  40196a:       74 1e                   je     40198a <init_timeout+0x25>
  40196c:       be 42 21 40 00          mov    $0x402142,%esi
  401971:       bf 0e 00 00 00          mov    $0xe,%edi
  401976:       e8 3d f2 ff ff          callq  400bb8 <signal@plt>
  40197b:       85 db                   test   %ebx,%ebx
  40197d:       bf 00 00 00 00          mov    $0x0,%edi
  401982:       0f 49 fb                cmovns %ebx,%edi
  401985:       e8 5e f2 ff ff          callq  400be8 <alarm@plt>
  40198a:       5b                      pop    %rbx
  40198b:       c3                      retq

000000000040198c <rio_readlineb>:
  40198c:       41 57                   push   %r15
  40198e:       41 56                   push   %r14
  401990:       41 55                   push   %r13
  401992:       41 54                   push   %r12
  401994:       55                      push   %rbp
  401995:       53                      push   %rbx
  401996:       48 83 ec 28             sub    $0x28,%rsp
  40199a:       48 89 fb                mov    %rdi,%rbx
  40199d:       48 89 14 24             mov    %rdx,(%rsp)
  4019a1:       49 89 f7                mov    %rsi,%r15
  4019a4:       48 83 fa 01             cmp    $0x1,%rdx
  4019a8:       0f 86 c0 00 00 00       jbe    401a6e <rio_readlineb+0xe2>
  4019ae:       4c 8d 6f 10             lea    0x10(%rdi),%r13
  4019b2:       4d 89 ec                mov    %r13,%r12
  4019b5:       41 be 01 00 00 00       mov    $0x1,%r14d
  4019bb:       eb 38                   jmp    4019f5 <rio_readlineb+0x69>
  4019bd:       ba 00 20 00 00          mov    $0x2000,%edx
  4019c2:       4c 89 ee                mov    %r13,%rsi
  4019c5:       8b 3b                   mov    (%rbx),%edi
  4019c7:       e8 2c f1 ff ff          callq  400af8 <read@plt>
  4019cc:       89 43 04                mov    %eax,0x4(%rbx)
  4019cf:       85 c0                   test   %eax,%eax
  4019d1:       79 16                   jns    4019e9 <rio_readlineb+0x5d>
  4019d3:       e8 20 f2 ff ff          callq  400bf8 <__errno_location@plt>
  4019d8:       83 38 04                cmpl   $0x4,(%rax)
  4019db:       74 18                   je     4019f5 <rio_readlineb+0x69>
  4019dd:       48 c7 c2 ff ff ff ff    mov    $0xffffffffffffffff,%rdx
  4019e4:       e9 a6 00 00 00          jmpq   401a8f <rio_readlineb+0x103>
  4019e9:       85 c0                   test   %eax,%eax
  4019eb:       0f 84 99 00 00 00       je     401a8a <rio_readlineb+0xfe>
  4019f1:       4c 89 63 08             mov    %r12,0x8(%rbx)
  4019f5:       8b 6b 04                mov    0x4(%rbx),%ebp
  4019f8:       85 ed                   test   %ebp,%ebp
  4019fa:       7e c1                   jle    4019bd <rio_readlineb+0x31>
  4019fc:       85 ed                   test   %ebp,%ebp
  4019fe:       0f 85 90 00 00 00       jne    401a94 <rio_readlineb+0x108>
  401a04:       48 63 c5                movslq %ebp,%rax
  401a07:       48 89 44 24 08          mov    %rax,0x8(%rsp)
  401a0c:       48 8b 73 08             mov    0x8(%rbx),%rsi
  401a10:       48 89 c2                mov    %rax,%rdx
  401a13:       48 8d 7c 24 1f          lea    0x1f(%rsp),%rdi
  401a18:       e8 8b f1 ff ff          callq  400ba8 <memcpy@plt>
  401a1d:       48 8b 44 24 08          mov    0x8(%rsp),%rax
  401a22:       48 01 43 08             add    %rax,0x8(%rbx)
  401a26:       29 6b 04                sub    %ebp,0x4(%rbx)
  401a29:       89 c2                   mov    %eax,%edx
  401a2b:       83 f8 01                cmp    $0x1,%eax
  401a2e:       75 15                   jne    401a45 <rio_readlineb+0xb9>
  401a30:       0f b6 44 24 1f          movzbl 0x1f(%rsp),%eax
  401a35:       41 88 07                mov    %al,(%r15)
  401a38:       49 83 c7 01             add    $0x1,%r15
  401a3c:       80 7c 24 1f 0a          cmpb   $0xa,0x1f(%rsp)
  401a41:       75 1c                   jne    401a5f <rio_readlineb+0xd3>
  401a43:       eb 2f                   jmp    401a74 <rio_readlineb+0xe8>
  401a45:       44 89 f1                mov    %r14d,%ecx
  401a48:       48 c7 c0 ff ff ff ff    mov    $0xffffffffffffffff,%rax
  401a4f:       85 d2                   test   %edx,%edx
  401a51:       75 28                   jne    401a7b <rio_readlineb+0xef>
  401a53:       b8 00 00 00 00          mov    $0x0,%eax
  401a58:       83 f9 01                cmp    $0x1,%ecx
  401a5b:       75 17                   jne    401a74 <rio_readlineb+0xe8>
  401a5d:       eb 1c                   jmp    401a7b <rio_readlineb+0xef>
  401a5f:       41 83 c6 01             add    $0x1,%r14d
  401a63:       49 63 c6                movslq %r14d,%rax
  401a66:       48 3b 04 24             cmp    (%rsp),%rax
  401a6a:       72 89                   jb     4019f5 <rio_readlineb+0x69>
  401a6c:       eb 06                   jmp    401a74 <rio_readlineb+0xe8>
  401a6e:       41 be 01 00 00 00       mov    $0x1,%r14d
  401a74:       41 c6 07 00             movb   $0x0,(%r15)
  401a78:       49 63 c6                movslq %r14d,%rax
  401a7b:       48 83 c4 28             add    $0x28,%rsp
  401a7f:       5b                      pop    %rbx
  401a80:       5d                      pop    %rbp
  401a81:       41 5c                   pop    %r12
  401a83:       41 5d                   pop    %r13
  401a85:       41 5e                   pop    %r14
  401a87:       41 5f                   pop    %r15
  401a89:       c3                      retq
  401a8a:       ba 00 00 00 00          mov    $0x0,%edx
  401a8f:       44 89 f1                mov    %r14d,%ecx
  401a92:       eb b4                   jmp    401a48 <rio_readlineb+0xbc>
  401a94:       48 8b 43 08             mov    0x8(%rbx),%rax
  401a98:       0f b6 00                movzbl (%rax),%eax
  401a9b:       88 44 24 1f             mov    %al,0x1f(%rsp)
  401a9f:       48 83 43 08 01          addq   $0x1,0x8(%rbx)
  401aa4:       83 6b 04 01             subl   $0x1,0x4(%rbx)
  401aa8:       eb 86                   jmp    401a30 <rio_readlineb+0xa4>

0000000000401aaa <submitr>:
  401aaa:       41 57                   push   %r15
  401aac:       41 56                   push   %r14
  401aae:       41 55                   push   %r13
  401ab0:       41 54                   push   %r12
  401ab2:       55                      push   %rbp
  401ab3:       53                      push   %rbx
  401ab4:       48 81 ec 58 a0 00 00    sub    $0xa058,%rsp
  401abb:       48 89 fb                mov    %rdi,%rbx
  401abe:       41 89 f4                mov    %esi,%r12d
  401ac1:       48 89 14 24             mov    %rdx,(%rsp)
  401ac5:       48 89 4c 24 08          mov    %rcx,0x8(%rsp)
  401aca:       4d 89 c7                mov    %r8,%r15
  401acd:       4c 89 cd                mov    %r9,%rbp
  401ad0:       4c 8b b4 24 90 a0 00    mov    0xa090(%rsp),%r14
  401ad7:       00
  401ad8:       c7 84 24 2c 20 00 00    movl   $0x0,0x202c(%rsp)
  401adf:       00 00 00 00
  401ae3:       ba 00 00 00 00          mov    $0x0,%edx
  401ae8:       be 01 00 00 00          mov    $0x1,%esi
  401aed:       bf 02 00 00 00          mov    $0x2,%edi
  401af2:       e8 d1 f0 ff ff          callq  400bc8 <socket@plt>
  401af7:       41 89 c5                mov    %eax,%r13d
  401afa:       85 c0                   test   %eax,%eax
  401afc:       79 19                   jns    401b17 <submitr+0x6d>
  401afe:       be 00 28 40 00          mov    $0x402800,%esi
  401b03:       b9 26 00 00 00          mov    $0x26,%ecx
  401b08:       4c 89 f7                mov    %r14,%rdi
  401b0b:       f3 a4                   rep movsb %ds:(%rsi),%es:(%rdi)
  401b0d:       b8 ff ff ff ff          mov    $0xffffffff,%eax
  401b12:       e9 45 05 00 00          jmpq   40205c <submitr+0x5b2>
  401b17:       48 89 df                mov    %rbx,%rdi
  401b1a:       e8 89 ef ff ff          callq  400aa8 <gethostbyname@plt>
  401b1f:       48 85 c0                test   %rax,%rax
  401b22:       75 21                   jne    401b45 <submitr+0x9b>
  401b24:       be 28 28 40 00          mov    $0x402828,%esi
  401b29:       b9 2f 00 00 00          mov    $0x2f,%ecx
  401b2e:       4c 89 f7                mov    %r14,%rdi
  401b31:       f3 a4                   rep movsb %ds:(%rsi),%es:(%rdi)
  401b33:       44 89 ef                mov    %r13d,%edi
  401b36:       e8 5d ef ff ff          callq  400a98 <close@plt>
  401b3b:       b8 ff ff ff ff          mov    $0xffffffff,%eax
  401b40:       e9 17 05 00 00          jmpq   40205c <submitr+0x5b2>
  401b45:       48 8d 9c 24 40 a0 00    lea    0xa040(%rsp),%rbx
  401b4c:       00
  401b4d:       48 c7 03 00 00 00 00    movq   $0x0,(%rbx)
  401b54:       48 c7 43 08 00 00 00    movq   $0x0,0x8(%rbx)
  401b5b:       00
  401b5c:       66 c7 84 24 40 a0 00    movw   $0x2,0xa040(%rsp)
  401b63:       00 02 00
  401b66:       48 63 50 14             movslq 0x14(%rax),%rdx
  401b6a:       48 8d 73 04             lea    0x4(%rbx),%rsi
  401b6e:       48 8b 40 18             mov    0x18(%rax),%rax
  401b72:       48 8b 38                mov    (%rax),%rdi
  401b75:       e8 be ef ff ff          callq  400b38 <bcopy@plt>
  401b7a:       66 41 c1 cc 08          ror    $0x8,%r12w
  401b7f:       66 44 89 a4 24 42 a0    mov    %r12w,0xa042(%rsp)
  401b86:       00 00
  401b88:       ba 10 00 00 00          mov    $0x10,%edx
  401b8d:       48 89 de                mov    %rbx,%rsi
  401b90:       44 89 ef                mov    %r13d,%edi
  401b93:       e8 f0 ef ff ff          callq  400b88 <connect@plt>
  401b98:       85 c0                   test   %eax,%eax
  401b9a:       79 21                   jns    401bbd <submitr+0x113>
  401b9c:       be 58 28 40 00          mov    $0x402858,%esi
  401ba1:       b9 27 00 00 00          mov    $0x27,%ecx
  401ba6:       4c 89 f7                mov    %r14,%rdi
  401ba9:       f3 a4                   rep movsb %ds:(%rsi),%es:(%rdi)
  401bab:       44 89 ef                mov    %r13d,%edi
  401bae:       e8 e5 ee ff ff          callq  400a98 <close@plt>
  401bb3:       b8 ff ff ff ff          mov    $0xffffffff,%eax
  401bb8:       e9 9f 04 00 00          jmpq   40205c <submitr+0x5b2>
  401bbd:       48 c7 c2 ff ff ff ff    mov    $0xffffffffffffffff,%rdx
  401bc4:       48 89 ef                mov    %rbp,%rdi
  401bc7:       b8 00 00 00 00          mov    $0x0,%eax
  401bcc:       48 89 d1                mov    %rdx,%rcx
  401bcf:       f2 ae                   repnz scas %es:(%rdi),%al
  401bd1:       48 89 cb                mov    %rcx,%rbx
  401bd4:       48 f7 d3                not    %rbx
  401bd7:       48 8b 3c 24             mov    (%rsp),%rdi
  401bdb:       48 89 d1                mov    %rdx,%rcx
  401bde:       f2 ae                   repnz scas %es:(%rdi),%al
  401be0:       48 89 ce                mov    %rcx,%rsi
  401be3:       48 8b 7c 24 08          mov    0x8(%rsp),%rdi
  401be8:       48 89 d1                mov    %rdx,%rcx
  401beb:       f2 ae                   repnz scas %es:(%rdi),%al
  401bed:       49 89 c8                mov    %rcx,%r8
  401bf0:       49 f7 d0                not    %r8
  401bf3:       4c 89 ff                mov    %r15,%rdi
  401bf6:       48 89 d1                mov    %rdx,%rcx
  401bf9:       f2 ae                   repnz scas %es:(%rdi),%al
  401bfb:       49 29 f0                sub    %rsi,%r8
  401bfe:       49 29 c8                sub    %rcx,%r8
  401c01:       48 8d 5c 5b fd          lea    -0x3(%rbx,%rbx,2),%rbx
  401c06:       49 8d 44 18 7b          lea    0x7b(%r8,%rbx,1),%rax
  401c0b:       48 3d 00 20 00 00       cmp    $0x2000,%rax
  401c11:       0f 86 81 00 00 00       jbe    401c98 <submitr+0x1ee>
  401c17:       41 c7 06 45 72 72 6f    movl   $0x6f727245,(%r14)
  401c1e:       41 c7 46 04 72 3a 20    movl   $0x52203a72,0x4(%r14)
  401c25:       52
  401c26:       41 c7 46 08 65 73 75    movl   $0x6c757365,0x8(%r14)
  401c2d:       6c
  401c2e:       41 c7 46 0c 74 20 73    movl   $0x74732074,0xc(%r14)
  401c35:       74
  401c36:       41 c7 46 10 72 69 6e    movl   $0x676e6972,0x10(%r14)
  401c3d:       67
  401c3e:       41 c7 46 14 20 74 6f    movl   $0x6f6f7420,0x14(%r14)
  401c45:       6f
  401c46:       41 c7 46 18 20 6c 61    movl   $0x72616c20,0x18(%r14)
  401c4d:       72
  401c4e:       41 c7 46 1c 67 65 2e    movl   $0x202e6567,0x1c(%r14)
  401c55:       20
  401c56:       41 c7 46 20 49 6e 63    movl   $0x72636e49,0x20(%r14)
  401c5d:       72
  401c5e:       41 c7 46 24 65 61 73    movl   $0x65736165,0x24(%r14)
  401c65:       65
  401c66:       41 c7 46 28 20 53 55    movl   $0x42555320,0x28(%r14)
  401c6d:       42
  401c6e:       41 c7 46 2c 4d 49 54    movl   $0x5254494d,0x2c(%r14)
  401c75:       52
  401c76:       41 c7 46 30 5f 4d 41    movl   $0x58414d5f,0x30(%r14)
  401c7d:       58
  401c7e:       41 c7 46 34 42 55 46    movl   $0x465542,0x34(%r14)
  401c85:       00
  401c86:       44 89 ef                mov    %r13d,%edi
  401c89:       e8 0a ee ff ff          callq  400a98 <close@plt>
  401c8e:       b8 ff ff ff ff          mov    $0xffffffff,%eax
  401c93:       e9 c4 03 00 00          jmpq   40205c <submitr+0x5b2>
  401c98:       48 8d 94 24 30 40 00    lea    0x4030(%rsp),%rdx
  401c9f:       00
  401ca0:       b9 00 04 00 00          mov    $0x400,%ecx
  401ca5:       b8 00 00 00 00          mov    $0x0,%eax
  401caa:       48 89 d7                mov    %rdx,%rdi
  401cad:       f3 48 ab                rep stos %rax,%es:(%rdi)
  401cb0:       48 89 ef                mov    %rbp,%rdi
  401cb3:       48 c7 c1 ff ff ff ff    mov    $0xffffffffffffffff,%rcx
  401cba:       f2 ae                   repnz scas %es:(%rdi),%al
  401cbc:       48 f7 d1                not    %rcx
  401cbf:       83 e9 01                sub    $0x1,%ecx
  401cc2:       0f 84 a6 03 00 00       je     40206e <submitr+0x5c4>
  401cc8:       48 89 d3                mov    %rdx,%rbx
  401ccb:       44 8d 61 ff             lea    -0x1(%rcx),%r12d
  401ccf:       0f b6 45 00             movzbl 0x0(%rbp),%eax
  401cd3:       3c 2a                   cmp    $0x2a,%al
  401cd5:       74 24                   je     401cfb <submitr+0x251>
  401cd7:       3c 2d                   cmp    $0x2d,%al
  401cd9:       74 20                   je     401cfb <submitr+0x251>
  401cdb:       3c 2e                   cmp    $0x2e,%al
  401cdd:       74 1c                   je     401cfb <submitr+0x251>
  401cdf:       3c 5f                   cmp    $0x5f,%al
  401ce1:       74 18                   je     401cfb <submitr+0x251>
  401ce3:       8d 50 d0                lea    -0x30(%rax),%edx
  401ce6:       80 fa 09                cmp    $0x9,%dl
  401ce9:       76 10                   jbe    401cfb <submitr+0x251>
  401ceb:       8d 50 bf                lea    -0x41(%rax),%edx
  401cee:       80 fa 19                cmp    $0x19,%dl
  401cf1:       76 08                   jbe    401cfb <submitr+0x251>
  401cf3:       8d 50 9f                lea    -0x61(%rax),%edx
  401cf6:       80 fa 19                cmp    $0x19,%dl
  401cf9:       77 08                   ja     401d03 <submitr+0x259>
  401cfb:       88 03                   mov    %al,(%rbx)
  401cfd:       48 83 c3 01             add    $0x1,%rbx
  401d01:       eb 4b                   jmp    401d4e <submitr+0x2a4>
  401d03:       3c 20                   cmp    $0x20,%al
  401d05:       75 09                   jne    401d10 <submitr+0x266>
  401d07:       c6 03 2b                movb   $0x2b,(%rbx)
  401d0a:       48 83 c3 01             add    $0x1,%rbx
  401d0e:       eb 3e                   jmp    401d4e <submitr+0x2a4>
  401d10:       8d 50 e0                lea    -0x20(%rax),%edx
  401d13:       80 fa 5f                cmp    $0x5f,%dl
  401d16:       76 04                   jbe    401d1c <submitr+0x272>
  401d18:       3c 09                   cmp    $0x9,%al
  401d1a:       75 48                   jne    401d64 <submitr+0x2ba>
  401d1c:       0f b6 d0                movzbl %al,%edx
  401d1f:       be 98 27 40 00          mov    $0x402798,%esi
  401d24:       48 8d 7c 24 10          lea    0x10(%rsp),%rdi
  401d29:       b8 00 00 00 00          mov    $0x0,%eax
  401d2e:       e8 25 ee ff ff          callq  400b58 <sprintf@plt>
  401d33:       0f b6 44 24 10          movzbl 0x10(%rsp),%eax
  401d38:       88 03                   mov    %al,(%rbx)
  401d3a:       0f b6 44 24 11          movzbl 0x11(%rsp),%eax
  401d3f:       88 43 01                mov    %al,0x1(%rbx)
  401d42:       0f b6 44 24 12          movzbl 0x12(%rsp),%eax
  401d47:       88 43 02                mov    %al,0x2(%rbx)
  401d4a:       48 83 c3 03             add    $0x3,%rbx
  401d4e:       45 85 e4                test   %r12d,%r12d
  401d51:       0f 84 17 03 00 00       je     40206e <submitr+0x5c4>
  401d57:       48 83 c5 01             add    $0x1,%rbp
  401d5b:       41 83 ec 01             sub    $0x1,%r12d
  401d5f:       e9 6b ff ff ff          jmpq   401ccf <submitr+0x225>
  401d64:       be 80 28 40 00          mov    $0x402880,%esi
  401d69:       b9 43 00 00 00          mov    $0x43,%ecx
  401d6e:       4c 89 f7                mov    %r14,%rdi
  401d71:       f3 a4                   rep movsb %ds:(%rsi),%es:(%rdi)
  401d73:       44 89 ef                mov    %r13d,%edi
  401d76:       e8 1d ed ff ff          callq  400a98 <close@plt>
  401d7b:       b8 ff ff ff ff          mov    $0xffffffff,%eax
  401d80:       e9 d7 02 00 00          jmpq   40205c <submitr+0x5b2>
  401d85:       48 01 c5                add    %rax,%rbp
  401d88:       48 89 da                mov    %rbx,%rdx
  401d8b:       48 89 ee                mov    %rbp,%rsi
  401d8e:       44 89 ef                mov    %r13d,%edi
  401d91:       e8 92 ee ff ff          callq  400c28 <write@plt>
  401d96:       48 85 c0                test   %rax,%rax
  401d99:       7f 0d                   jg     401da8 <submitr+0x2fe>
  401d9b:       e8 58 ee ff ff          callq  400bf8 <__errno_location@plt>
  401da0:       83 38 04                cmpl   $0x4,(%rax)
  401da3:       75 0d                   jne    401db2 <submitr+0x308>
  401da5:       4c 89 f8                mov    %r15,%rax
  401da8:       48 29 c3                sub    %rax,%rbx
  401dab:       75 d8                   jne    401d85 <submitr+0x2db>
  401dad:       4d 85 e4                test   %r12,%r12
  401db0:       79 5d                   jns    401e0f <submitr+0x365>
  401db2:       4c 89 f7                mov    %r14,%rdi
  401db5:       be c8 28 40 00          mov    $0x4028c8,%esi
  401dba:       b8 2c 00 00 00          mov    $0x2c,%eax
  401dbf:       41 f6 c6 01             test   $0x1,%r14b
  401dc3:       74 04                   je     401dc9 <submitr+0x31f>
  401dc5:       a4                      movsb  %ds:(%rsi),%es:(%rdi)
  401dc6:       83 e8 01                sub    $0x1,%eax
  401dc9:       40 f6 c7 02             test   $0x2,%dil
  401dcd:       74 05                   je     401dd4 <submitr+0x32a>
  401dcf:       66 a5                   movsw  %ds:(%rsi),%es:(%rdi)
  401dd1:       83 e8 02                sub    $0x2,%eax
  401dd4:       89 c1                   mov    %eax,%ecx
  401dd6:       c1 e9 02                shr    $0x2,%ecx
  401dd9:       89 c9                   mov    %ecx,%ecx
  401ddb:       f3 a5                   rep movsl %ds:(%rsi),%es:(%rdi)
  401ddd:       ba 00 00 00 00          mov    $0x0,%edx
  401de2:       a8 02                   test   $0x2,%al
  401de4:       74 0c                   je     401df2 <submitr+0x348>
  401de6:       0f b7 0c 16             movzwl (%rsi,%rdx,1),%ecx
  401dea:       66 89 0c 17             mov    %cx,(%rdi,%rdx,1)
  401dee:       48 83 c2 02             add    $0x2,%rdx
  401df2:       a8 01                   test   $0x1,%al
  401df4:       74 07                   je     401dfd <submitr+0x353>
  401df6:       0f b6 04 16             movzbl (%rsi,%rdx,1),%eax
  401dfa:       88 04 17                mov    %al,(%rdi,%rdx,1)
  401dfd:       44 89 ef                mov    %r13d,%edi
  401e00:       e8 93 ec ff ff          callq  400a98 <close@plt>
  401e05:       b8 ff ff ff ff          mov    $0xffffffff,%eax
  401e0a:       e9 4d 02 00 00          jmpq   40205c <submitr+0x5b2>
  401e0f:       44 89 ac 24 30 80 00    mov    %r13d,0x8030(%rsp)
  401e16:       00
  401e17:       c7 84 24 34 80 00 00    movl   $0x0,0x8034(%rsp)
  401e1e:       00 00 00 00
  401e22:       48 8d bc 24 30 80 00    lea    0x8030(%rsp),%rdi
  401e29:       00
  401e2a:       48 8d 47 10             lea    0x10(%rdi),%rax
  401e2e:       48 89 84 24 38 80 00    mov    %rax,0x8038(%rsp)
  401e35:       00
  401e36:       48 8d b4 24 30 60 00    lea    0x6030(%rsp),%rsi
  401e3d:       00
  401e3e:       ba 00 20 00 00          mov    $0x2000,%edx
  401e43:       e8 44 fb ff ff          callq  40198c <rio_readlineb>
  401e48:       48 85 c0                test   %rax,%rax
  401e4b:       7f 21                   jg     401e6e <submitr+0x3c4>
  401e4d:       be f8 28 40 00          mov    $0x4028f8,%esi
  401e52:       b9 36 00 00 00          mov    $0x36,%ecx
  401e57:       4c 89 f7                mov    %r14,%rdi
  401e5a:       f3 a4                   rep movsb %ds:(%rsi),%es:(%rdi)
  401e5c:       44 89 ef                mov    %r13d,%edi
  401e5f:       e8 34 ec ff ff          callq  400a98 <close@plt>
  401e64:       b8 ff ff ff ff          mov    $0xffffffff,%eax
  401e69:       e9 ee 01 00 00          jmpq   40205c <submitr+0x5b2>
  401e6e:       4c 8d bc 24 30 60 00    lea    0x6030(%rsp),%r15
  401e75:       00
  401e76:       48 8d 8c 24 2c 20 00    lea    0x202c(%rsp),%rcx
  401e7d:       00
  401e7e:       48 8d 94 24 30 20 00    lea    0x2030(%rsp),%rdx
  401e85:       00
  401e86:       4c 8d 44 24 20          lea    0x20(%rsp),%r8
  401e8b:       be 9f 27 40 00          mov    $0x40279f,%esi
  401e90:       4c 89 ff                mov    %r15,%rdi
  401e93:       b8 00 00 00 00          mov    $0x0,%eax
  401e98:       e8 2b ec ff ff          callq  400ac8 <__isoc99_sscanf@plt>
  401e9d:       8b 94 24 2c 20 00 00    mov    0x202c(%rsp),%edx
  401ea4:       81 fa c8 00 00 00       cmp    $0xc8,%edx
  401eaa:       0f 84 b8 00 00 00       je     401f68 <submitr+0x4be>
  401eb0:       48 8d 4c 24 20          lea    0x20(%rsp),%rcx
  401eb5:       be 30 29 40 00          mov    $0x402930,%esi
  401eba:       4c 89 f7                mov    %r14,%rdi
  401ebd:       b8 00 00 00 00          mov    $0x0,%eax
  401ec2:       e8 91 ec ff ff          callq  400b58 <sprintf@plt>
  401ec7:       44 89 ef                mov    %r13d,%edi
  401eca:       e8 c9 eb ff ff          callq  400a98 <close@plt>
  401ecf:       b8 ff ff ff ff          mov    $0xffffffff,%eax
  401ed4:       e9 83 01 00 00          jmpq   40205c <submitr+0x5b2>
  401ed9:       ba 00 20 00 00          mov    $0x2000,%edx
  401ede:       48 89 de                mov    %rbx,%rsi
  401ee1:       4c 89 e7                mov    %r12,%rdi
  401ee4:       e8 a3 fa ff ff          callq  40198c <rio_readlineb>
  401ee9:       48 85 c0                test   %rax,%rax
  401eec:       0f 8f 8b 00 00 00       jg     401f7d <submitr+0x4d3>
  401ef2:       41 c7 06 45 72 72 6f    movl   $0x6f727245,(%r14)
  401ef9:       41 c7 46 04 72 3a 20    movl   $0x43203a72,0x4(%r14)
  401f00:       43
  401f01:       41 c7 46 08 6c 69 65    movl   $0x6e65696c,0x8(%r14)
  401f08:       6e
  401f09:       41 c7 46 0c 74 20 75    movl   $0x6e752074,0xc(%r14)
  401f10:       6e
  401f11:       41 c7 46 10 61 62 6c    movl   $0x656c6261,0x10(%r14)
  401f18:       65
  401f19:       41 c7 46 14 20 74 6f    movl   $0x206f7420,0x14(%r14)
  401f20:       20
  401f21:       41 c7 46 18 72 65 61    movl   $0x64616572,0x18(%r14)
  401f28:       64
  401f29:       41 c7 46 1c 20 68 65    movl   $0x61656820,0x1c(%r14)
  401f30:       61
  401f31:       41 c7 46 20 64 65 72    movl   $0x73726564,0x20(%r14)
  401f38:       73
  401f39:       41 c7 46 24 20 66 72    movl   $0x6f726620,0x24(%r14)
  401f40:       6f
  401f41:       41 c7 46 28 6d 20 73    movl   $0x6573206d,0x28(%r14)
  401f48:       65
  401f49:       41 c7 46 2c 72 76 65    movl   $0x72657672,0x2c(%r14)
  401f50:       72
  401f51:       41 c6 46 30 00          movb   $0x0,0x30(%r14)
  401f56:       44 89 ef                mov    %r13d,%edi
  401f59:       e8 3a eb ff ff          callq  400a98 <close@plt>
  401f5e:       b8 ff ff ff ff          mov    $0xffffffff,%eax
  401f63:       e9 f4 00 00 00          jmpq   40205c <submitr+0x5b2>
  401f68:       48 8d 9c 24 30 60 00    lea    0x6030(%rsp),%rbx
  401f6f:       00
  401f70:       bd b0 27 40 00          mov    $0x4027b0,%ebp
  401f75:       4c 8d a4 24 30 80 00    lea    0x8030(%rsp),%r12
  401f7c:       00
  401f7d:       0f b6 03                movzbl (%rbx),%eax
  401f80:       3a 45 00                cmp    0x0(%rbp),%al
  401f83:       0f 85 50 ff ff ff       jne    401ed9 <submitr+0x42f>
  401f89:       0f b6 43 01             movzbl 0x1(%rbx),%eax
  401f8d:       3a 45 01                cmp    0x1(%rbp),%al
  401f90:       0f 85 43 ff ff ff       jne    401ed9 <submitr+0x42f>
  401f96:       0f b6 43 02             movzbl 0x2(%rbx),%eax
  401f9a:       3a 45 02                cmp    0x2(%rbp),%al
  401f9d:       0f 85 36 ff ff ff       jne    401ed9 <submitr+0x42f>
  401fa3:       48 8d b4 24 30 60 00    lea    0x6030(%rsp),%rsi
  401faa:       00
  401fab:       48 8d bc 24 30 80 00    lea    0x8030(%rsp),%rdi
  401fb2:       00
  401fb3:       ba 00 20 00 00          mov    $0x2000,%edx
  401fb8:       e8 cf f9 ff ff          callq  40198c <rio_readlineb>
  401fbd:       48 85 c0                test   %rax,%rax
  401fc0:       7f 5a                   jg     40201c <submitr+0x572>
  401fc2:       4c 89 f7                mov    %r14,%rdi
  401fc5:       be 60 29 40 00          mov    $0x402960,%esi
  401fca:       b8 38 00 00 00          mov    $0x38,%eax
  401fcf:       41 f6 c6 01             test   $0x1,%r14b
  401fd3:       74 04                   je     401fd9 <submitr+0x52f>
  401fd5:       a4                      movsb  %ds:(%rsi),%es:(%rdi)
  401fd6:       83 e8 01                sub    $0x1,%eax
  401fd9:       40 f6 c7 02             test   $0x2,%dil
  401fdd:       74 05                   je     401fe4 <submitr+0x53a>
  401fdf:       66 a5                   movsw  %ds:(%rsi),%es:(%rdi)
  401fe1:       83 e8 02                sub    $0x2,%eax
  401fe4:       89 c1                   mov    %eax,%ecx
  401fe6:       c1 e9 02                shr    $0x2,%ecx
  401fe9:       89 c9                   mov    %ecx,%ecx
  401feb:       f3 a5                   rep movsl %ds:(%rsi),%es:(%rdi)
  401fed:       ba 00 00 00 00          mov    $0x0,%edx
  401ff2:       a8 02                   test   $0x2,%al
  401ff4:       74 0c                   je     402002 <submitr+0x558>
  401ff6:       0f b7 0c 16             movzwl (%rsi,%rdx,1),%ecx
  401ffa:       66 89 0c 17             mov    %cx,(%rdi,%rdx,1)
  401ffe:       48 83 c2 02             add    $0x2,%rdx
  402002:       a8 01                   test   $0x1,%al
  402004:       74 07                   je     40200d <submitr+0x563>
  402006:       0f b6 04 16             movzbl (%rsi,%rdx,1),%eax
  40200a:       88 04 17                mov    %al,(%rdi,%rdx,1)
  40200d:       44 89 ef                mov    %r13d,%edi
  402010:       e8 83 ea ff ff          callq  400a98 <close@plt>
  402015:       b8 ff ff ff ff          mov    $0xffffffff,%eax
  40201a:       eb 40                   jmp    40205c <submitr+0x5b2>
  40201c:       4c 89 fe                mov    %r15,%rsi
  40201f:       4c 89 f7                mov    %r14,%rdi
  402022:       e8 e1 eb ff ff          callq  400c08 <strcpy@plt>
  402027:       44 89 ef                mov    %r13d,%edi
  40202a:       e8 69 ea ff ff          callq  400a98 <close@plt>
  40202f:       b8 b3 27 40 00          mov    $0x4027b3,%eax
  402034:       41 0f b6 16             movzbl (%r14),%edx
  402038:       3a 10                   cmp    (%rax),%dl
  40203a:       75 1b                   jne    402057 <submitr+0x5ad>
  40203c:       41 0f b6 56 01          movzbl 0x1(%r14),%edx
  402041:       3a 50 01                cmp    0x1(%rax),%dl
  402044:       75 11                   jne    402057 <submitr+0x5ad>
  402046:       41 0f b6 56 02          movzbl 0x2(%r14),%edx
  40204b:       3a 50 02                cmp    0x2(%rax),%dl
  40204e:       75 07                   jne    402057 <submitr+0x5ad>
  402050:       b8 00 00 00 00          mov    $0x0,%eax
  402055:       eb 05                   jmp    40205c <submitr+0x5b2>
  402057:       b8 ff ff ff ff          mov    $0xffffffff,%eax
  40205c:       48 81 c4 58 a0 00 00    add    $0xa058,%rsp
  402063:       5b                      pop    %rbx
  402064:       5d                      pop    %rbp
  402065:       41 5c                   pop    %r12
  402067:       41 5d                   pop    %r13
  402069:       41 5e                   pop    %r14
  40206b:       41 5f                   pop    %r15
  40206d:       c3                      retq
  40206e:       48 8d 9c 24 30 60 00    lea    0x6030(%rsp),%rbx
  402075:       00
  402076:       4c 8d 8c 24 30 40 00    lea    0x4030(%rsp),%r9
  40207d:       00
  40207e:       4d 89 f8                mov    %r15,%r8
  402081:       48 8b 4c 24 08          mov    0x8(%rsp),%rcx
  402086:       48 8b 14 24             mov    (%rsp),%rdx
  40208a:       be 98 29 40 00          mov    $0x402998,%esi
  40208f:       48 89 df                mov    %rbx,%rdi
  402092:       b8 00 00 00 00          mov    $0x0,%eax
  402097:       e8 bc ea ff ff          callq  400b58 <sprintf@plt>
  40209c:       48 89 df                mov    %rbx,%rdi
  40209f:       b8 00 00 00 00          mov    $0x0,%eax
  4020a4:       48 c7 c1 ff ff ff ff    mov    $0xffffffffffffffff,%rcx
  4020ab:       f2 ae                   repnz scas %es:(%rdi),%al
  4020ad:       48 f7 d1                not    %rcx
  4020b0:       49 89 cc                mov    %rcx,%r12
  4020b3:       49 83 ec 01             sub    $0x1,%r12
  4020b7:       0f 84 52 fd ff ff       je     401e0f <submitr+0x365>
  4020bd:       4c 89 e3                mov    %r12,%rbx
  4020c0:       48 8d ac 24 30 60 00    lea    0x6030(%rsp),%rbp
  4020c7:       00
  4020c8:       41 bf 00 00 00 00       mov    $0x0,%r15d
  4020ce:       e9 b5 fc ff ff          jmpq   401d88 <submitr+0x2de>

00000000004020d3 <driver_post>:
  4020d3:       53                      push   %rbx
  4020d4:       48 83 ec 10             sub    $0x10,%rsp
  4020d8:       48 89 cb                mov    %rcx,%rbx
  4020db:       85 d2                   test   %edx,%edx
  4020dd:       74 1f                   je     4020fe <driver_post+0x2b>
  4020df:       bf b6 27 40 00          mov    $0x4027b6,%edi
  4020e4:       b8 00 00 00 00          mov    $0x0,%eax
  4020e9:       e8 9a e9 ff ff          callq  400a88 <printf@plt>
  4020ee:       66 c7 03 4f 4b          movw   $0x4b4f,(%rbx)
  4020f3:       c6 43 02 00             movb   $0x0,0x2(%rbx)
  4020f7:       b8 00 00 00 00          mov    $0x0,%eax
  4020fc:       eb 3e                   jmp    40213c <driver_post+0x69>
  4020fe:       48 85 ff                test   %rdi,%rdi
  402101:       74 2b                   je     40212e <driver_post+0x5b>
  402103:       80 3f 00                cmpb   $0x0,(%rdi)
  402106:       74 26                   je     40212e <driver_post+0x5b>
  402108:       48 89 0c 24             mov    %rcx,(%rsp)
  40210c:       49 89 f1                mov    %rsi,%r9
  40210f:       41 b8 cd 27 40 00       mov    $0x4027cd,%r8d
  402115:       48 89 f9                mov    %rdi,%rcx
  402118:       ba d1 27 40 00          mov    $0x4027d1,%edx
  40211d:       be 6e 3b 00 00          mov    $0x3b6e,%esi
  402122:       bf 7e 25 40 00          mov    $0x40257e,%edi
  402127:       e8 7e f9 ff ff          callq  401aaa <submitr>
  40212c:       eb 0e                   jmp    40213c <driver_post+0x69>
  40212e:       66 c7 03 4f 4b          movw   $0x4b4f,(%rbx)
  402133:       c6 43 02 00             movb   $0x0,0x2(%rbx)
  402137:       b8 00 00 00 00          mov    $0x0,%eax
  40213c:       48 83 c4 10             add    $0x10,%rsp
  402140:       5b                      pop    %rbx
  402141:       c3                      retq

0000000000402142 <sigalrm_handler>:
  402142:       48 83 ec 08             sub    $0x8,%rsp
  402146:       ba 00 00 00 00          mov    $0x0,%edx
  40214b:       be e8 29 40 00          mov    $0x4029e8,%esi
  402150:       48 8b 3d f1 1b 20 00    mov    0x201bf1(%rip),%rdi        # 603d48 <stderr@@GLIBC_2.2.5>
  402157:       b8 00 00 00 00          mov    $0x0,%eax
  40215c:       e8 b7 ea ff ff          callq  400c18 <fprintf@plt>
  402161:       bf 01 00 00 00          mov    $0x1,%edi
  402166:       e8 6d e9 ff ff          callq  400ad8 <exit@plt>
  40216b:       90                      nop
  40216c:       90                      nop
  40216d:       90                      nop
  40216e:       90                      nop
  40216f:       90                      nop

0000000000402170 <__libc_csu_fini>:
  402170:       f3 c3                   repz retq
  402172:       66 66 66 66 66 2e 0f    data32 data32 data32 data32 nopw %cs:0x0(%rax,%rax,1)
  402179:       1f 84 00 00 00 00 00

0000000000402180 <__libc_csu_init>:
  402180:       48 89 6c 24 d8          mov    %rbp,-0x28(%rsp)
  402185:       4c 89 64 24 e0          mov    %r12,-0x20(%rsp)
  40218a:       48 8d 2d 6f 0e 20 00    lea    0x200e6f(%rip),%rbp        # 603000 <__CTOR_LIST__>
  402191:       4c 8d 25 68 0e 20 00    lea    0x200e68(%rip),%r12        # 603000 <__CTOR_LIST__>
  402198:       4c 89 6c 24 e8          mov    %r13,-0x18(%rsp)
  40219d:       4c 89 74 24 f0          mov    %r14,-0x10(%rsp)
  4021a2:       4c 89 7c 24 f8          mov    %r15,-0x8(%rsp)
  4021a7:       48 89 5c 24 d0          mov    %rbx,-0x30(%rsp)
  4021ac:       48 83 ec 38             sub    $0x38,%rsp
  4021b0:       4c 29 e5                sub    %r12,%rbp
  4021b3:       41 89 fd                mov    %edi,%r13d
  4021b6:       49 89 f6                mov    %rsi,%r14
  4021b9:       48 c1 fd 03             sar    $0x3,%rbp
  4021bd:       49 89 d7                mov    %rdx,%r15
  4021c0:       e8 9b e8 ff ff          callq  400a60 <_init>
  4021c5:       48 85 ed                test   %rbp,%rbp
  4021c8:       74 1c                   je     4021e6 <__libc_csu_init+0x66>
  4021ca:       31 db                   xor    %ebx,%ebx
  4021cc:       0f 1f 40 00             nopl   0x0(%rax)
  4021d0:       4c 89 fa                mov    %r15,%rdx
  4021d3:       4c 89 f6                mov    %r14,%rsi
  4021d6:       44 89 ef                mov    %r13d,%edi
  4021d9:       41 ff 14 dc             callq  *(%r12,%rbx,8)
  4021dd:       48 83 c3 01             add    $0x1,%rbx
  4021e1:       48 39 eb                cmp    %rbp,%rbx
  4021e4:       72 ea                   jb     4021d0 <__libc_csu_init+0x50>
  4021e6:       48 8b 5c 24 08          mov    0x8(%rsp),%rbx
  4021eb:       48 8b 6c 24 10          mov    0x10(%rsp),%rbp
  4021f0:       4c 8b 64 24 18          mov    0x18(%rsp),%r12
  4021f5:       4c 8b 6c 24 20          mov    0x20(%rsp),%r13
  4021fa:       4c 8b 74 24 28          mov    0x28(%rsp),%r14
  4021ff:       4c 8b 7c 24 30          mov    0x30(%rsp),%r15
  402204:       48 83 c4 38             add    $0x38,%rsp
  402208:       c3                      retq
  402209:       90                      nop
  40220a:       90                      nop
  40220b:       90                      nop
  40220c:       90                      nop
  40220d:       90                      nop
  40220e:       90                      nop
  40220f:       90                      nop

0000000000402210 <__do_global_ctors_aux>:
  402210:       55                      push   %rbp
  402211:       48 89 e5                mov    %rsp,%rbp
  402214:       53                      push   %rbx
  402215:       48 83 ec 08             sub    $0x8,%rsp
  402219:       48 8b 05 e0 0d 20 00    mov    0x200de0(%rip),%rax        # 603000 <__CTOR_LIST__>
  402220:       48 83 f8 ff             cmp    $0xffffffffffffffff,%rax
  402224:       74 19                   je     40223f <__do_global_ctors_aux+0x2f>
  402226:       bb 00 30 60 00          mov    $0x603000,%ebx
  40222b:       0f 1f 44 00 00          nopl   0x0(%rax,%rax,1)
  402230:       48 83 eb 08             sub    $0x8,%rbx
  402234:       ff d0                   callq  *%rax
  402236:       48 8b 03                mov    (%rbx),%rax
  402239:       48 83 f8 ff             cmp    $0xffffffffffffffff,%rax
  40223d:       75 f1                   jne    402230 <__do_global_ctors_aux+0x20>
  40223f:       48 83 c4 08             add    $0x8,%rsp
  402243:       5b                      pop    %rbx
  402244:       c9                      leaveq
  402245:       c3                      retq
  402246:       90                      nop
  402247:       90                      nop

Disassembly of section .fini:

0000000000402248 <_fini>:
  402248:       48 83 ec 08             sub    $0x8,%rsp
  40224c:       e8 4f ea ff ff          callq  400ca0 <__do_global_dtors_aux>
  402251:       48 83 c4 08             add    $0x8,%rsp
  402255:       c3                      retq

